(i__main__
Node
p0
(dp1
S'right'
p2
(i__main__
Node
p3
(dp4
g2
(i__main__
Node
p5
(dp6
g2
(i__main__
Node
p7
(dp8
g2
NsS'parser'
p9
NsS'label'
p10
I1
sS'depth'
p11
I4
sS'criterion'
p12
NsS'left'
p13
Nsbsg9
Nsg10
Nsg11
I3
sg12
S'now'
p14
sg13
(i__main__
Node
p15
(dp16
g2
(i__main__
Node
p17
(dp18
g2
Nsg9
Nsg10
I1
sg11
I5
sg12
Nsg13
Nsbsg9
Nsg10
Nsg11
I4
sg12
S'windi'
p19
sg13
(i__main__
Node
p20
(dp21
g2
(i__main__
Node
p22
(dp23
g2
Nsg9
Nsg10
I-1
sg11
I6
sg12
Nsg13
Nsbsg9
Nsg10
Nsg11
I5
sg12
S'outsid'
p24
sg13
(i__main__
Node
p25
(dp26
g2
(i__main__
Node
p27
(dp28
g2
Nsg9
Nsg10
I1
sg11
I7
sg12
Nsg13
Nsbsg9
Nsg10
Nsg11
I6
sg12
S'want'
p29
sg13
(i__main__
Node
p30
(dp31
g2
(i__main__
Node
p32
(dp33
g2
Nsg9
Nsg10
I1
sg11
I8
sg12
Nsg13
Nsbsg9
Nsg10
Nsg11
I7
sg12
S'love'
p34
sg13
(i__main__
Node
p35
(dp36
g2
(i__main__
Node
p37
(dp38
g2
Nsg9
Nsg10
I-1
sg11
I9
sg12
Nsg13
Nsbsg9
Nsg10
Nsg11
I8
sg12
S'here'
p39
sg13
(i__main__
Node
p40
(dp41
g2
(i__main__
Node
p42
(dp43
g2
Nsg9
Nsg10
I1
sg11
I10
sg12
Nsg13
Nsbsg9
Nsg10
Nsg11
I9
sg12
S'humid'
p44
sg13
(i__main__
Node
p45
(dp46
g2
(i__main__
Node
p47
(dp48
g2
Nsg9
Nsg10
I1
sg11
I11
sg12
Nsg13
Nsbsg9
Nsg10
Nsg11
I10
sg12
S'devon'
p49
sg13
(i__main__
Node
p50
(dp51
g2
(i__main__
Node
p52
(dp53
g2
Nsg9
Nsg10
I1
sg11
I12
sg12
Nsg13
Nsbsg9
Nsg10
Nsg11
I11
sg12
S'time'
p54
sg13
(i__main__
Node
p55
(dp56
g2
(i__main__
Node
p57
(dp58
g2
Nsg9
Nsg10
I1
sg11
I13
sg12
Nsg13
Nsbsg9
Nsg10
Nsg11
I12
sg12
S'suck'
p59
sg13
(i__main__
Node
p60
(dp61
g2
(i__main__
Node
p62
(dp63
g2
Nsg9
Nsg10
I1
sg11
I14
sg12
Nsg13
Nsbsg9
Nsg10
Nsg11
I13
sg12
S'sunni'
p64
sg13
(i__main__
Node
p65
(dp66
g2
(i__main__
Node
p67
(dp68
g2
Nsg9
Nsg10
I1
sg11
I15
sg12
Nsg13
Nsbsg9
Nsg10
Nsg11
I14
sg12
S'onli'
p69
sg13
(i__main__
Node
p70
(dp71
g2
Nsg9
Nsg10
I-1
sg11
I15
sg12
Nsg13
Nsbsbsbsbsbsbsbsbsbsbsbsbsbsg9
Nsg10
Nsg11
I2
sg12
S'hot'
p72
sg13
(i__main__
Node
p73
(dp74
g2
(i__main__
Node
p75
(dp76
g2
Nsg9
Nsg10
I-1
sg11
I4
sg12
Nsg13
Nsbsg9
Nsg10
Nsg11
I3
sg12
S'everyon'
p77
sg13
(i__main__
Node
p78
(dp79
g2
(i__main__
Node
p80
(dp81
g2
Nsg9
Nsg10
I-1
sg11
I5
sg12
Nsg13
Nsbsg9
Nsg10
Nsg11
I4
sg12
S'forward'
p82
sg13
(i__main__
Node
p83
(dp84
g2
(i__main__
Node
p85
(dp86
g2
(i__main__
Node
p87
(dp88
g2
Nsg9
Nsg10
I-1
sg11
I7
sg12
Nsg13
Nsbsg9
Nsg10
Nsg11
I6
sg12
S'mention'
p89
sg13
(i__main__
Node
p90
(dp91
g2
(i__main__
Node
p92
(dp93
g2
Nsg9
Nsg10
I-1
sg11
I8
sg12
Nsg13
Nsbsg9
Nsg10
Nsg11
I7
sg12
g24
sg13
(i__main__
Node
p94
(dp95
g2
(i__main__
Node
p96
(dp97
g2
Nsg9
Nsg10
I-1
sg11
I9
sg12
Nsg13
Nsbsg9
Nsg10
Nsg11
I8
sg12
g34
sg13
(i__main__
Node
p98
(dp99
g2
(i__main__
Node
p100
(dp101
g2
Nsg9
Nsg10
I-1
sg11
I10
sg12
Nsg13
Nsbsg9
Nsg10
Nsg11
I9
sg12
S'avoid'
p102
sg13
(i__main__
Node
p103
(dp104
g2
Nsg9
Nsg10
I1
sg11
I10
sg12
Nsg13
Nsbsbsbsbsbsg9
Nsg10
Nsg11
I5
sg12
S'degre'
p105
sg13
(i__main__
Node
p106
(dp107
g2
(i__main__
Node
p108
(dp109
g2
(i__main__
Node
p110
(dp111
g2
Nsg9
Nsg10
I-1
sg11
I8
sg12
Nsg13
Nsbsg9
Nsg10
Nsg11
I7
sg12
S'rain'
p112
sg13
(i__main__
Node
p113
(dp114
g2
(i__main__
Node
p115
(dp116
g2
Nsg9
Nsg10
I-1
sg11
I9
sg12
Nsg13
Nsbsg9
Nsg10
Nsg11
I8
sg12
S'rt'
p117
sg13
(i__main__
Node
p118
(dp119
g2
(i__main__
Node
p120
(dp121
g2
Nsg9
Nsg10
I-1
sg11
I10
sg12
Nsg13
Nsbsg9
Nsg10
Nsg11
I9
sg12
S'dark'
p122
sg13
(i__main__
Node
p123
(dp124
g2
(i__main__
Node
p125
(dp126
g2
Nsg9
Nsg10
I-1
sg11
I11
sg12
Nsg13
Nsbsg9
Nsg10
Nsg11
I10
sg12
S'perfect'
p127
sg13
(i__main__
Node
p128
(dp129
g2
Nsg9
Nsg10
I1
sg11
I11
sg12
Nsg13
Nsbsbsbsbsbsg9
Nsg10
Nsg11
I6
sg12
g64
sg13
(i__main__
Node
p130
(dp131
g2
(i__main__
Node
p132
(dp133
g2
(i__main__
Node
p134
(dp135
g2
(i__main__
Node
p136
(dp137
g2
Nsg9
Nsg10
I-1
sg11
I10
sg12
Nsg13
Nsbsg9
Nsg10
Nsg11
I9
sg12
S'childhoodmemori'
p138
sg13
(i__main__
Node
p139
(dp140
g2
Nsg9
Nsg10
I1
sg11
I10
sg12
Nsg13
Nsbsbsg9
Nsg10
Nsg11
I8
sg12
S'out'
p141
sg13
(i__main__
Node
p142
(dp143
g2
Nsg9
Nsg10
I-1
sg11
I9
sg12
Nsg13
Nsbsbsg9
Nsg10
Nsg11
I7
sg12
S'air'
p144
sg13
(i__main__
Node
p145
(dp146
g2
(i__main__
Node
p147
(dp148
g2
(i__main__
Node
p149
(dp150
g2
Nsg9
Nsg10
I-1
sg11
I10
sg12
Nsg13
Nsbsg9
Nsg10
Nsg11
I9
sg12
g141
sg13
(i__main__
Node
p151
(dp152
g2
(i__main__
Node
p153
(dp154
g2
Nsg9
Nsg10
I-1
sg11
I11
sg12
Nsg13
Nsbsg9
Nsg10
Nsg11
I10
sg12
g117
sg13
(i__main__
Node
p155
(dp156
g2
(i__main__
Node
p157
(dp158
g2
Nsg9
Nsg10
I-1
sg11
I12
sg12
Nsg13
Nsbsg9
Nsg10
Nsg11
I11
sg12
S'one'
p159
sg13
(i__main__
Node
p160
(dp161
g2
Nsg9
Nsg10
I1
sg11
I12
sg12
Nsg13
Nsbsbsbsbsg9
Nsg10
Nsg11
I8
sg12
S'nice'
p162
sg13
(i__main__
Node
p163
(dp164
g2
(i__main__
Node
p165
(dp166
g2
(i__main__
Node
p167
(dp168
g2
Nsg9
Nsg10
I-1
sg11
I11
sg12
Nsg13
Nsbsg9
Nsg10
Nsg11
I10
sg12
g54
sg13
(i__main__
Node
p169
(dp170
g2
Nsg9
Nsg10
I1
sg11
I11
sg12
Nsg13
Nsbsbsg9
Nsg10
Nsg11
I9
sg12
S'it'
p171
sg13
(i__main__
Node
p172
(dp173
g2
(i__main__
Node
p174
(dp175
g2
(i__main__
Node
p176
(dp177
g2
Nsg9
Nsg10
I1
sg11
I12
sg12
Nsg13
Nsbsg9
Nsg10
Nsg11
I11
sg12
S're'
p178
sg13
(i__main__
Node
p179
(dp180
g2
Nsg9
Nsg10
I-1
sg11
I12
sg12
Nsg13
Nsbsbsg9
Nsg10
Nsg11
I10
sg12
S'way'
p181
sg13
(i__main__
Node
p182
(dp183
g2
(i__main__
Node
p184
(dp185
g2
(i__main__
Node
p186
(dp187
g2
Nsg9
Nsg10
I-1
sg11
I13
sg12
Nsg13
Nsbsg9
Nsg10
Nsg11
I12
sg12
S'you'
p188
sg13
(i__main__
Node
p189
(dp190
g2
(i__main__
Node
p191
(dp192
g2
(i__main__
Node
p193
(dp194
g2
Nsg9
Nsg10
I1
sg11
I15
sg12
Nsg13
Nsbsg9
Nsg10
Nsg11
I14
sg12
g39
sg13
(i__main__
Node
p195
(dp196
g2
Nsg9
Nsg10
I-1
sg11
I15
sg12
Nsg13
Nsbsbsg9
Nsg10
Nsg11
I13
sg12
g89
sg13
(i__main__
Node
p197
(dp198
g2
Nsg9
Nsg10
I1
sg11
I14
sg12
Nsg13
Nsbsbsbsg9
Nsg10
Nsg11
I11
sg12
S'been'
p199
sg13
(i__main__
Node
p200
(dp201
g2
(i__main__
Node
p202
(dp203
g2
(i__main__
Node
p204
(dp205
g2
Nsg9
Nsg10
I-1
sg11
I14
sg12
Nsg13
Nsbsg9
Nsg10
Nsg11
I13
sg12
S'i'
p206
sg13
(i__main__
Node
p207
(dp208
g2
(i__main__
Node
p209
(dp210
g2
Nsg9
Nsg10
I-1
sg11
I15
sg12
Nsg13
Nsbsg9
Nsg10
Nsg11
I14
sg12
S'chase'
p211
sg13
(i__main__
Node
p212
(dp213
g2
Nsg9
Nsg10
I1
sg11
I15
sg12
Nsg13
Nsbsbsbsg9
Nsg10
Nsg11
I12
sg12
S'hous'
p214
sg13
(i__main__
Node
p215
(dp216
g2
(i__main__
Node
p217
(dp218
g2
(i__main__
Node
p219
(dp220
g2
Nsg9
Nsg10
I-1
sg11
I15
sg12
Nsg13
Nsbsg9
Nsg10
Nsg11
I14
sg12
S'where'
p221
sg13
(i__main__
Node
p222
(dp223
g2
Nsg9
Nsg10
I1
sg11
I15
sg12
Nsg13
Nsbsbsg9
Nsg10
Nsg11
I13
sg12
S'weather'
p224
sg13
(i__main__
Node
p225
(dp226
g2
(i__main__
Node
p227
(dp228
g2
Nsg9
Nsg10
I-1
sg11
I15
sg12
Nsg13
Nsbsg9
Nsg10
Nsg11
I14
sg12
S'ass'
p229
sg13
(i__main__
Node
p230
(dp231
g2
Nsg9
Nsg10
I1
sg11
I15
sg12
Nsg13
Nsbsbsbsbsbsbsbsbsbsbsbsbsbsbsg9
Nsg10
Nsg11
I1
sg12
S'cold'
p232
sg13
(i__main__
Node
p233
(dp234
g2
(i__main__
Node
p235
(dp236
g2
(i__main__
Node
p237
(dp238
g2
(i__main__
Node
p239
(dp240
g2
Nsg9
Nsg10
I1
sg11
I5
sg12
Nsg13
Nsbsg9
Nsg10
Nsg11
I4
sg12
g72
sg13
(i__main__
Node
p241
(dp242
g2
(i__main__
Node
p243
(dp244
g2
Nsg9
Nsg10
I1
sg11
I6
sg12
Nsg13
Nsbsg9
Nsg10
Nsg11
I5
sg12
S'prevent'
p245
sg13
(i__main__
Node
p246
(dp247
g2
Nsg9
Nsg10
I-1
sg11
I6
sg12
Nsg13
Nsbsbsbsg9
Nsg10
Nsg11
I3
sg12
g162
sg13
(i__main__
Node
p248
(dp249
g2
(i__main__
Node
p250
(dp251
g2
Nsg9
Nsg10
I-1
sg11
I5
sg12
Nsg13
Nsbsg9
Nsg10
Nsg11
I4
sg12
S'fix'
p252
sg13
(i__main__
Node
p253
(dp254
g2
(i__main__
Node
p255
(dp256
g2
Nsg9
Nsg10
I-1
sg11
I6
sg12
Nsg13
Nsbsg9
Nsg10
Nsg11
I5
sg12
S'suppos'
p257
sg13
(i__main__
Node
p258
(dp259
g2
(i__main__
Node
p260
(dp261
g2
Nsg9
Nsg10
I-1
sg11
I7
sg12
Nsg13
Nsbsg9
Nsg10
Nsg11
I6
sg12
g144
sg13
(i__main__
Node
p262
(dp263
g2
(i__main__
Node
p264
(dp265
g2
Nsg9
Nsg10
I-1
sg11
I8
sg12
Nsg13
Nsbsg9
Nsg10
Nsg11
I7
sg12
S'isn'
p266
sg13
(i__main__
Node
p267
(dp268
g2
(i__main__
Node
p269
(dp270
g2
Nsg9
Nsg10
I-1
sg11
I9
sg12
Nsg13
Nsbsg9
Nsg10
Nsg11
I8
sg12
S'must'
p271
sg13
(i__main__
Node
p272
(dp273
g2
(i__main__
Node
p274
(dp275
g2
Nsg9
Nsg10
I-1
sg11
I10
sg12
Nsg13
Nsbsg9
Nsg10
Nsg11
I9
sg12
S'snow'
p276
sg13
(i__main__
Node
p277
(dp278
g2
(i__main__
Node
p279
(dp280
g2
(i__main__
Node
p281
(dp282
g2
Nsg9
Nsg10
I1
sg11
I12
sg12
Nsg13
Nsbsg9
Nsg10
Nsg11
I11
sg12
S'redgag'
p283
sg13
(i__main__
Node
p284
(dp285
g2
Nsg9
Nsg10
I-1
sg11
I12
sg12
Nsg13
Nsbsbsg9
Nsg10
Nsg11
I10
sg12
S'fog'
p286
sg13
(i__main__
Node
p287
(dp288
g2
(i__main__
Node
p289
(dp290
g2
(i__main__
Node
p291
(dp292
g2
Nsg9
Nsg10
I1
sg11
I13
sg12
Nsg13
Nsbsg9
Nsg10
Nsg11
I12
sg12
S'so'
p293
sg13
(i__main__
Node
p294
(dp295
g2
Nsg9
Nsg10
I-1
sg11
I13
sg12
Nsg13
Nsbsbsg9
Nsg10
Nsg11
I11
sg12
S'run'
p296
sg13
(i__main__
Node
p297
(dp298
g2
(i__main__
Node
p299
(dp300
g2
(i__main__
Node
p301
(dp302
g2
Nsg9
Nsg10
I-1
sg11
I14
sg12
Nsg13
Nsbsg9
Nsg10
Nsg11
I13
sg12
S'still'
p303
sg13
(i__main__
Node
p304
(dp305
g2
(i__main__
Node
p306
(dp307
g2
Nsg9
Nsg10
I-1
sg11
I15
sg12
Nsg13
Nsbsg9
Nsg10
Nsg11
I14
sg12
S'up'
p308
sg13
(i__main__
Node
p309
(dp310
g2
Nsg9
Nsg10
I1
sg11
I15
sg12
Nsg13
Nsbsbsbsg9
Nsg10
Nsg11
I12
sg12
S's'
p311
sg13
(i__main__
Node
p312
(dp313
g2
(i__main__
Node
p314
(dp315
g2
(i__main__
Node
p316
(dp317
g2
Nsg9
Nsg10
I-1
sg11
I15
sg12
Nsg13
Nsbsg9
Nsg10
Nsg11
I14
sg12
S'keep'
p318
sg13
(i__main__
Node
p319
(dp320
g2
Nsg9
Nsg10
I1
sg11
I15
sg12
Nsg13
Nsbsbsg9
Nsg10
Nsg11
I13
sg12
S'my'
p321
sg13
(i__main__
Node
p322
(dp323
g2
(i__main__
Node
p324
(dp325
g2
Nsg9
Nsg10
I-1
sg11
I15
sg12
Nsg13
Nsbsg9
Nsg10
Nsg11
I14
sg12
S'hev'
p326
sg13
(i__main__
Node
p327
(dp328
g2
Nsg9
Nsg10
I1
sg11
I15
sg12
Nsg13
Nsbsbsbsbsbsbsbsbsbsbsbsbsbsg9
Nsg10
Nsg11
I2
sg12
S'freez'
p329
sg13
(i__main__
Node
p330
(dp331
g2
(i__main__
Node
p332
(dp333
g2
(i__main__
Node
p334
(dp335
g2
Nsg9
Nsg10
I-1
sg11
I5
sg12
Nsg13
Nsbsg9
Nsg10
Nsg11
I4
sg12
S'news'
p336
sg13
(i__main__
Node
p337
(dp338
g2
(i__main__
Node
p339
(dp340
g2
(i__main__
Node
p341
(dp342
g2
Nsg9
Nsg10
I1
sg11
I7
sg12
Nsg13
Nsbsg9
Nsg10
Nsg11
I6
sg12
g54
sg13
(i__main__
Node
p343
(dp344
g2
(i__main__
Node
p345
(dp346
g2
Nsg9
Nsg10
I1
sg11
I8
sg12
Nsg13
Nsbsg9
Nsg10
Nsg11
I7
sg12
g293
sg13
(i__main__
Node
p347
(dp348
g2
Nsg9
Nsg10
I-1
sg11
I8
sg12
Nsg13
Nsbsbsbsg9
Nsg10
Nsg11
I5
sg12
g303
sg13
(i__main__
Node
p349
(dp350
g2
(i__main__
Node
p351
(dp352
g2
Nsg9
Nsg10
I-1
sg11
I7
sg12
Nsg13
Nsbsg9
Nsg10
Nsg11
I6
sg12
S'dinner'
p353
sg13
(i__main__
Node
p354
(dp355
g2
(i__main__
Node
p356
(dp357
g2
(i__main__
Node
p358
(dp359
g2
Nsg9
Nsg10
I-1
sg11
I9
sg12
Nsg13
Nsbsg9
Nsg10
Nsg11
I8
sg12
S'cloud'
p360
sg13
(i__main__
Node
p361
(dp362
g2
(i__main__
Node
p363
(dp364
g2
Nsg9
Nsg10
I-1
sg11
I10
sg12
Nsg13
Nsbsg9
Nsg10
Nsg11
I9
sg12
S'capricorn'
p365
sg13
(i__main__
Node
p366
(dp367
g2
(i__main__
Node
p368
(dp369
g2
Nsg9
Nsg10
I-1
sg11
I11
sg12
Nsg13
Nsbsg9
Nsg10
Nsg11
I10
sg12
S'seattl'
p370
sg13
(i__main__
Node
p371
(dp372
g2
(i__main__
Node
p373
(dp374
g2
Nsg9
Nsg10
I-1
sg11
I12
sg12
Nsg13
Nsbsg9
Nsg10
Nsg11
I11
sg12
S'pull'
p375
sg13
(i__main__
Node
p376
(dp377
g2
Nsg9
Nsg10
I1
sg11
I12
sg12
Nsg13
Nsbsbsbsbsbsg9
Nsg10
Nsg11
I7
sg12
g117
sg13
(i__main__
Node
p378
(dp379
g2
(i__main__
Node
p380
(dp381
g2
(i__main__
Node
p382
(dp383
g2
Nsg9
Nsg10
I1
sg11
I10
sg12
Nsg13
Nsbsg9
Nsg10
Nsg11
I9
sg12
S'me'
p384
sg13
(i__main__
Node
p385
(dp386
g2
Nsg9
Nsg10
I-1
sg11
I10
sg12
Nsg13
Nsbsbsg9
Nsg10
Nsg11
I8
sg12
S'even'
p387
sg13
(i__main__
Node
p388
(dp389
g2
(i__main__
Node
p390
(dp391
g2
Nsg9
Nsg10
I-1
sg11
I10
sg12
Nsg13
Nsbsg9
Nsg10
Nsg11
I9
sg12
S'fit'
p392
sg13
(i__main__
Node
p393
(dp394
g2
(i__main__
Node
p395
(dp396
g2
Nsg9
Nsg10
I-1
sg11
I11
sg12
Nsg13
Nsbsg9
Nsg10
Nsg11
I10
sg12
S'2day'
p397
sg13
(i__main__
Node
p398
(dp399
g2
(i__main__
Node
p400
(dp401
g2
Nsg9
Nsg10
I-1
sg11
I12
sg12
Nsg13
Nsbsg9
Nsg10
Nsg11
I11
sg12
S'louisvil'
p402
sg13
(i__main__
Node
p403
(dp404
g2
(i__main__
Node
p405
(dp406
g2
Nsg9
Nsg10
I-1
sg11
I13
sg12
Nsg13
Nsbsg9
Nsg10
Nsg11
I12
sg12
S'flood'
p407
sg13
(i__main__
Node
p408
(dp409
g2
(i__main__
Node
p410
(dp411
g2
Nsg9
Nsg10
I-1
sg11
I14
sg12
Nsg13
Nsbsg9
Nsg10
Nsg11
I13
sg12
S'se'
p412
sg13
(i__main__
Node
p413
(dp414
g2
(i__main__
Node
p415
(dp416
g2
Nsg9
Nsg10
I-1
sg11
I15
sg12
Nsg13
Nsbsg9
Nsg10
Nsg11
I14
sg12
S'cloudi'
p417
sg13
(i__main__
Node
p418
(dp419
g2
Nsg9
Nsg10
I1
sg11
I15
sg12
Nsg13
Nsbsbsbsbsbsbsbsbsbsbsbsbsg9
Nsg10
Nsg11
I3
sg12
S'chilli'
p420
sg13
(i__main__
Node
p421
(dp422
g2
(i__main__
Node
p423
(dp424
g2
(i__main__
Node
p425
(dp426
g2
(i__main__
Node
p427
(dp428
g2
Nsg9
Nsg10
I-1
sg11
I7
sg12
Nsg13
Nsbsg9
Nsg10
Nsg11
I6
sg12
g89
sg13
(i__main__
Node
p429
(dp430
g2
(i__main__
Node
p431
(dp432
g2
Nsg9
Nsg10
I-1
sg11
I8
sg12
Nsg13
Nsbsg9
Nsg10
Nsg11
I7
sg12
g34
sg13
(i__main__
Node
p433
(dp434
g2
(i__main__
Node
p435
(dp436
g2
Nsg9
Nsg10
I-1
sg11
I9
sg12
Nsg13
Nsbsg9
Nsg10
Nsg11
I8
sg12
S'sad'
p437
sg13
(i__main__
Node
p438
(dp439
g2
Nsg9
Nsg10
I1
sg11
I9
sg12
Nsg13
Nsbsbsbsbsg9
Nsg10
Nsg11
I5
sg12
S'40'
p440
sg13
(i__main__
Node
p441
(dp442
g2
(i__main__
Node
p443
(dp444
g2
Nsg9
Nsg10
I-1
sg11
I7
sg12
Nsg13
Nsbsg9
Nsg10
Nsg11
I6
sg12
S'90'
p445
sg13
(i__main__
Node
p446
(dp447
g2
(i__main__
Node
p448
(dp449
g2
(i__main__
Node
p450
(dp451
g2
Nsg9
Nsg10
I-1
sg11
I9
sg12
Nsg13
Nsbsg9
Nsg10
Nsg11
I8
sg12
S'plant'
p452
sg13
(i__main__
Node
p453
(dp454
g2
Nsg9
Nsg10
I1
sg11
I9
sg12
Nsg13
Nsbsbsg9
Nsg10
Nsg11
I7
sg12
S'low'
p455
sg13
(i__main__
Node
p456
(dp457
g2
(i__main__
Node
p458
(dp459
g2
Nsg9
Nsg10
I1
sg11
I9
sg12
Nsg13
Nsbsg9
Nsg10
Nsg11
I8
sg12
S'came'
p460
sg13
(i__main__
Node
p461
(dp462
g2
(i__main__
Node
p463
(dp464
g2
Nsg9
Nsg10
I1
sg11
I10
sg12
Nsg13
Nsbsg9
Nsg10
Nsg11
I9
sg12
S'wake'
p465
sg13
(i__main__
Node
p466
(dp467
g2
(i__main__
Node
p468
(dp469
g2
Nsg9
Nsg10
I1
sg11
I11
sg12
Nsg13
Nsbsg9
Nsg10
Nsg11
I10
sg12
S'colder'
p470
sg13
(i__main__
Node
p471
(dp472
g2
(i__main__
Node
p473
(dp474
g2
(i__main__
Node
p475
(dp476
g2
Nsg9
Nsg10
I-1
sg11
I13
sg12
Nsg13
Nsbsg9
Nsg10
Nsg11
I12
sg12
g206
sg13
(i__main__
Node
p477
(dp478
g2
(i__main__
Node
p479
(dp480
g2
Nsg9
Nsg10
I-1
sg11
I14
sg12
Nsg13
Nsbsg9
Nsg10
Nsg11
I13
sg12
g39
sg13
(i__main__
Node
p481
(dp482
g2
(i__main__
Node
p483
(dp484
g2
Nsg9
Nsg10
I-1
sg11
I15
sg12
Nsg13
Nsbsg9
Nsg10
Nsg11
I14
sg12
S'play'
p485
sg13
(i__main__
Node
p486
(dp487
g2
Nsg9
Nsg10
I1
sg11
I15
sg12
Nsg13
Nsbsbsbsbsg9
Nsg10
Nsg11
I11
sg12
S'tonight'
p488
sg13
(i__main__
Node
p489
(dp490
g2
(i__main__
Node
p491
(dp492
g2
(i__main__
Node
p493
(dp494
g2
Nsg9
Nsg10
I1
sg11
I14
sg12
Nsg13
Nsbsg9
Nsg10
Nsg11
I13
sg12
S'along'
p495
sg13
(i__main__
Node
p496
(dp497
g2
(i__main__
Node
p498
(dp499
g2
Nsg9
Nsg10
I1
sg11
I15
sg12
Nsg13
Nsbsg9
Nsg10
Nsg11
I14
sg12
g221
sg13
(i__main__
Node
p500
(dp501
g2
Nsg9
Nsg10
I-1
sg11
I15
sg12
Nsg13
Nsbsbsbsg9
Nsg10
Nsg11
I12
sg12
S'50'
p502
sg13
(i__main__
Node
p503
(dp504
g2
(i__main__
Node
p505
(dp506
g2
(i__main__
Node
p507
(dp508
g2
Nsg9
Nsg10
I1
sg11
I15
sg12
Nsg13
Nsbsg9
Nsg10
Nsg11
I14
sg12
S'drop'
p509
sg13
(i__main__
Node
p510
(dp511
g2
Nsg9
Nsg10
I-1
sg11
I15
sg12
Nsg13
Nsbsbsg9
Nsg10
Nsg11
I13
sg12
S'morn'
p512
sg13
(i__main__
Node
p513
(dp514
g2
(i__main__
Node
p515
(dp516
g2
Nsg9
Nsg10
I1
sg11
I15
sg12
Nsg13
Nsbsg9
Nsg10
Nsg11
I14
sg12
S'bit'
p517
sg13
(i__main__
Node
p518
(dp519
g2
Nsg9
Nsg10
I-1
sg11
I15
sg12
Nsg13
Nsbsbsbsbsbsbsbsbsbsbsbsg9
Nsg10
Nsg11
I4
sg12
g105
sg13
(i__main__
Node
p520
(dp521
g2
(i__main__
Node
p522
(dp523
g2
(i__main__
Node
p524
(dp525
g2
Nsg9
Nsg10
I-1
sg11
I7
sg12
Nsg13
Nsbsg9
Nsg10
Nsg11
I6
sg12
S'video'
p526
sg13
(i__main__
Node
p527
(dp528
g2
Nsg9
Nsg10
I1
sg11
I7
sg12
Nsg13
Nsbsbsg9
Nsg10
Nsg11
I5
sg12
g470
sg13
(i__main__
Node
p529
(dp530
g2
(i__main__
Node
p531
(dp532
g2
(i__main__
Node
p533
(dp534
g2
(i__main__
Node
p535
(dp536
g2
Nsg9
Nsg10
I-1
sg11
I9
sg12
Nsg13
Nsbsg9
Nsg10
Nsg11
I8
sg12
S'stay'
p537
sg13
(i__main__
Node
p538
(dp539
g2
Nsg9
Nsg10
I1
sg11
I9
sg12
Nsg13
Nsbsbsg9
Nsg10
Nsg11
I7
sg12
S'bed'
p540
sg13
(i__main__
Node
p541
(dp542
g2
(i__main__
Node
p543
(dp544
g2
(i__main__
Node
p545
(dp546
g2
Nsg9
Nsg10
I-1
sg11
I10
sg12
Nsg13
Nsbsg9
Nsg10
Nsg11
I9
sg12
g39
sg13
(i__main__
Node
p547
(dp548
g2
Nsg9
Nsg10
I1
sg11
I10
sg12
Nsg13
Nsbsbsg9
Nsg10
Nsg11
I8
sg12
S'definit'
p549
sg13
(i__main__
Node
p550
(dp551
g2
(i__main__
Node
p552
(dp553
g2
(i__main__
Node
p554
(dp555
g2
Nsg9
Nsg10
I-1
sg11
I11
sg12
Nsg13
Nsbsg9
Nsg10
Nsg11
I10
sg12
S'sign'
p556
sg13
(i__main__
Node
p557
(dp558
g2
Nsg9
Nsg10
I1
sg11
I11
sg12
Nsg13
Nsbsbsg9
Nsg10
Nsg11
I9
sg12
S'yet'
p559
sg13
(i__main__
Node
p560
(dp561
g2
(i__main__
Node
p562
(dp563
g2
Nsg9
Nsg10
I1
sg11
I11
sg12
Nsg13
Nsbsg9
Nsg10
Nsg11
I10
sg12
S'listen'
p564
sg13
(i__main__
Node
p565
(dp566
g2
(i__main__
Node
p567
(dp568
g2
Nsg9
Nsg10
I1
sg11
I12
sg12
Nsg13
Nsbsg9
Nsg10
Nsg11
I11
sg12
S'___'
p569
sg13
(i__main__
Node
p570
(dp571
g2
(i__main__
Node
p572
(dp573
g2
Nsg9
Nsg10
I1
sg11
I13
sg12
Nsg13
Nsbsg9
Nsg10
Nsg11
I12
sg12
S'um'
p574
sg13
(i__main__
Node
p575
(dp576
g2
(i__main__
Node
p577
(dp578
g2
Nsg9
Nsg10
I1
sg11
I14
sg12
Nsg13
Nsbsg9
Nsg10
Nsg11
I13
sg12
S'brrr'
p579
sg13
(i__main__
Node
p580
(dp581
g2
(i__main__
Node
p582
(dp583
g2
Nsg9
Nsg10
I1
sg11
I15
sg12
Nsg13
Nsbsg9
Nsg10
Nsg11
I14
sg12
S'sketchi'
p584
sg13
(i__main__
Node
p585
(dp586
g2
Nsg9
Nsg10
I-1
sg11
I15
sg12
Nsg13
Nsbsbsbsbsbsbsbsbsbsg9
Nsg10
Nsg11
I6
sg12
S'warm'
p587
sg13
(i__main__
Node
p588
(dp589
g2
(i__main__
Node
p590
(dp591
g2
(i__main__
Node
p592
(dp593
g2
(i__main__
Node
p594
(dp595
g2
Nsg9
Nsg10
I1
sg11
I10
sg12
Nsg13
Nsbsg9
Nsg10
Nsg11
I9
sg12
S'ceil'
p596
sg13
(i__main__
Node
p597
(dp598
g2
(i__main__
Node
p599
(dp600
g2
Nsg9
Nsg10
I1
sg11
I11
sg12
Nsg13
Nsbsg9
Nsg10
Nsg11
I10
sg12
S'arwx'
p601
sg13
(i__main__
Node
p602
(dp603
g2
(i__main__
Node
p604
(dp605
g2
Nsg9
Nsg10
I1
sg11
I12
sg12
Nsg13
Nsbsg9
Nsg10
Nsg11
I11
sg12
S'onc'
p606
sg13
(i__main__
Node
p607
(dp608
g2
(i__main__
Node
p609
(dp610
g2
Nsg9
Nsg10
I1
sg11
I13
sg12
Nsg13
Nsbsg9
Nsg10
Nsg11
I12
sg12
S'garden'
p611
sg13
(i__main__
Node
p612
(dp613
g2
(i__main__
Node
p614
(dp615
g2
Nsg9
Nsg10
I1
sg11
I14
sg12
Nsg13
Nsbsg9
Nsg10
Nsg11
I13
sg12
S'great'
p616
sg13
(i__main__
Node
p617
(dp618
g2
(i__main__
Node
p619
(dp620
g2
Nsg9
Nsg10
I1
sg11
I15
sg12
Nsg13
Nsbsg9
Nsg10
Nsg11
I14
sg12
S'equal'
p621
sg13
(i__main__
Node
p622
(dp623
g2
Nsg9
Nsg10
I-1
sg11
I15
sg12
Nsg13
Nsbsbsbsbsbsbsbsg9
Nsg10
Nsg11
I8
sg12
g224
sg13
(i__main__
Node
p624
(dp625
g2
Nsg9
Nsg10
I-1
sg11
I9
sg12
Nsg13
Nsbsbsg9
Nsg10
Nsg11
I7
sg12
S'cool'
p626
sg13
(i__main__
Node
p627
(dp628
g2
(i__main__
Node
p629
(dp630
g2
(i__main__
Node
p631
(dp632
g2
Nsg9
Nsg10
I1
sg11
I10
sg12
Nsg13
Nsbsg9
Nsg10
Nsg11
I9
sg12
S'man'
p633
sg13
(i__main__
Node
p634
(dp635
g2
(i__main__
Node
p636
(dp637
g2
Nsg9
Nsg10
I1
sg11
I11
sg12
Nsg13
Nsbsg9
Nsg10
Nsg11
I10
sg12
S'say'
p638
sg13
(i__main__
Node
p639
(dp640
g2
Nsg9
Nsg10
I-1
sg11
I11
sg12
Nsg13
Nsbsbsbsg9
Nsg10
Nsg11
I8
sg12
S'freezin'
p641
sg13
(i__main__
Node
p642
(dp643
g2
(i__main__
Node
p644
(dp645
g2
(i__main__
Node
p646
(dp647
g2
Nsg9
Nsg10
I-1
sg11
I11
sg12
Nsg13
Nsbsg9
Nsg10
Nsg11
I10
sg12
S'weirdest'
p648
sg13
(i__main__
Node
p649
(dp650
g2
Nsg9
Nsg10
I1
sg11
I11
sg12
Nsg13
Nsbsbsg9
Nsg10
Nsg11
I9
sg12
S'sweater'
p651
sg13
(i__main__
Node
p652
(dp653
g2
(i__main__
Node
p654
(dp655
g2
(i__main__
Node
p656
(dp657
g2
(i__main__
Node
p658
(dp659
g2
Nsg9
Nsg10
I-1
sg11
I13
sg12
Nsg13
Nsbsg9
Nsg10
Nsg11
I12
sg12
S'middl'
p660
sg13
(i__main__
Node
p661
(dp662
g2
Nsg9
Nsg10
I1
sg11
I13
sg12
Nsg13
Nsbsbsg9
Nsg10
Nsg11
I11
sg12
g206
sg13
(i__main__
Node
p663
(dp664
g2
(i__main__
Node
p665
(dp666
g2
Nsg9
Nsg10
I1
sg11
I13
sg12
Nsg13
Nsbsg9
Nsg10
Nsg11
I12
sg12
g549
sg13
(i__main__
Node
p667
(dp668
g2
Nsg9
Nsg10
I-1
sg11
I13
sg12
Nsg13
Nsbsbsbsg9
Nsg10
Nsg11
I10
sg12
S'cooler'
p669
sg13
(i__main__
Node
p670
(dp671
g2
(i__main__
Node
p672
(dp673
g2
(i__main__
Node
p674
(dp675
g2
(i__main__
Node
p676
(dp677
g2
Nsg9
Nsg10
I-1
sg11
I14
sg12
Nsg13
Nsbsg9
Nsg10
Nsg11
I13
sg12
S'second'
p678
sg13
(i__main__
Node
p679
(dp680
g2
Nsg9
Nsg10
I1
sg11
I14
sg12
Nsg13
Nsbsbsg9
Nsg10
Nsg11
I12
sg12
S'may'
p681
sg13
(i__main__
Node
p682
(dp683
g2
(i__main__
Node
p684
(dp685
g2
Nsg9
Nsg10
I1
sg11
I14
sg12
Nsg13
Nsbsg9
Nsg10
Nsg11
I13
sg12
S'had'
p686
sg13
(i__main__
Node
p687
(dp688
g2
(i__main__
Node
p689
(dp690
g2
Nsg9
Nsg10
I1
sg11
I15
sg12
Nsg13
Nsbsg9
Nsg10
Nsg11
I14
sg12
S'citi'
p691
sg13
(i__main__
Node
p692
(dp693
g2
Nsg9
Nsg10
I-1
sg11
I15
sg12
Nsg13
Nsbsbsbsbsg9
Nsg10
Nsg11
I11
sg12
S'heat'
p694
sg13
(i__main__
Node
p695
(dp696
g2
(i__main__
Node
p697
(dp698
g2
Nsg9
Nsg10
I1
sg11
I13
sg12
Nsg13
Nsbsg9
Nsg10
Nsg11
I12
sg12
S'kold'
p699
sg13
(i__main__
Node
p700
(dp701
g2
(i__main__
Node
p702
(dp703
g2
Nsg9
Nsg10
I1
sg11
I14
sg12
Nsg13
Nsbsg9
Nsg10
Nsg11
I13
sg12
S'fuckyou'
p704
sg13
(i__main__
Node
p705
(dp706
g2
(i__main__
Node
p707
(dp708
g2
Nsg9
Nsg10
I1
sg11
I15
sg12
Nsg13
Nsbsg9
Nsg10
Nsg11
I14
sg12
S'furnac'
p709
sg13
(i__main__
Node
p710
(dp711
g2
Nsg9
Nsg10
I-1
sg11
I15
sg12
Nsg13
Nsbsbsbsbsbsbsbsbsbsbsbsbsbsbsb.