(i__main__
Node
p0
(dp1
S'right'
p2
(i__main__
Node
p3
(dp4
g2
(i__main__
Node
p5
(dp6
g2
(i__main__
Node
p7
(dp8
g2
NsS'parser'
p9
NsS'label'
p10
I1
sS'depth'
p11
I4
sS'criterion'
p12
NsS'left'
p13
Nsbsg9
Nsg10
Nsg11
I3
sg12
S'now'
p14
sg13
(i__main__
Node
p15
(dp16
g2
(i__main__
Node
p17
(dp18
g2
Nsg9
Nsg10
I1
sg11
I5
sg12
Nsg13
Nsbsg9
Nsg10
Nsg11
I4
sg12
S'hot'
p19
sg13
(i__main__
Node
p20
(dp21
g2
(i__main__
Node
p22
(dp23
g2
Nsg9
Nsg10
I1
sg11
I6
sg12
Nsg13
Nsbsg9
Nsg10
Nsg11
I5
sg12
S'decid'
p24
sg13
(i__main__
Node
p25
(dp26
g2
(i__main__
Node
p27
(dp28
g2
Nsg9
Nsg10
I1
sg11
I7
sg12
Nsg13
Nsbsg9
Nsg10
Nsg11
I6
sg12
S'tear'
p29
sg13
(i__main__
Node
p30
(dp31
g2
(i__main__
Node
p32
(dp33
g2
Nsg9
Nsg10
I1
sg11
I8
sg12
Nsg13
Nsbsg9
Nsg10
Nsg11
I7
sg12
S'one'
p34
sg13
(i__main__
Node
p35
(dp36
g2
Nsg9
Nsg10
I-1
sg11
I8
sg12
Nsg13
Nsbsbsbsbsbsbsg9
Nsg10
Nsg11
I2
sg12
S'raini'
p37
sg13
(i__main__
Node
p38
(dp39
g2
(i__main__
Node
p40
(dp41
g2
(i__main__
Node
p42
(dp43
g2
Nsg9
Nsg10
I1
sg11
I5
sg12
Nsg13
Nsbsg9
Nsg10
Nsg11
I4
sg12
S'morn'
p44
sg13
(i__main__
Node
p45
(dp46
g2
(i__main__
Node
p47
(dp48
g2
Nsg9
Nsg10
I1
sg11
I6
sg12
Nsg13
Nsbsg9
Nsg10
Nsg11
I5
sg12
S't'
p49
sg13
(i__main__
Node
p50
(dp51
g2
(i__main__
Node
p52
(dp53
g2
Nsg9
Nsg10
I1
sg11
I7
sg12
Nsg13
Nsbsg9
Nsg10
Nsg11
I6
sg12
S'day'
p54
sg13
(i__main__
Node
p55
(dp56
g2
(i__main__
Node
p57
(dp58
g2
Nsg9
Nsg10
I1
sg11
I8
sg12
Nsg13
Nsbsg9
Nsg10
Nsg11
I7
sg12
S'o'
p59
sg13
(i__main__
Node
p60
(dp61
g2
(i__main__
Node
p62
(dp63
g2
Nsg9
Nsg10
I1
sg11
I9
sg12
Nsg13
Nsbsg9
Nsg10
Nsg11
I8
sg12
S'other'
p64
sg13
(i__main__
Node
p65
(dp66
g2
(i__main__
Node
p67
(dp68
g2
Nsg9
Nsg10
I1
sg11
I10
sg12
Nsg13
Nsbsg9
Nsg10
Nsg11
I9
sg12
S'look'
p69
sg13
(i__main__
Node
p70
(dp71
g2
Nsg9
Nsg10
I-1
sg11
I10
sg12
Nsg13
Nsbsbsbsbsbsbsbsg9
Nsg10
Nsg11
I3
sg12
S'cloudi'
p72
sg13
(i__main__
Node
p73
(dp74
g2
(i__main__
Node
p75
(dp76
g2
(i__main__
Node
p77
(dp78
g2
Nsg9
Nsg10
I1
sg11
I6
sg12
Nsg13
Nsbsg9
Nsg10
Nsg11
I5
sg12
S'all'
p79
sg13
(i__main__
Node
p80
(dp81
g2
(i__main__
Node
p82
(dp83
g2
Nsg9
Nsg10
I1
sg11
I7
sg12
Nsg13
Nsbsg9
Nsg10
Nsg11
I6
sg12
S'happi'
p84
sg13
(i__main__
Node
p85
(dp86
g2
(i__main__
Node
p87
(dp88
g2
Nsg9
Nsg10
I1
sg11
I8
sg12
Nsg13
Nsbsg9
Nsg10
Nsg11
I7
sg12
S'wasn'
p89
sg13
(i__main__
Node
p90
(dp91
g2
(i__main__
Node
p92
(dp93
g2
Nsg9
Nsg10
I1
sg11
I9
sg12
Nsg13
Nsbsg9
Nsg10
Nsg11
I8
sg12
S'had'
p94
sg13
(i__main__
Node
p95
(dp96
g2
(i__main__
Node
p97
(dp98
g2
Nsg9
Nsg10
I1
sg11
I10
sg12
Nsg13
Nsbsg9
Nsg10
Nsg11
I9
sg12
S'win'
p99
sg13
(i__main__
Node
p100
(dp101
g2
Nsg9
Nsg10
I-1
sg11
I10
sg12
Nsg13
Nsbsbsbsbsbsbsg9
Nsg10
Nsg11
I4
sg12
S'wish'
p102
sg13
(i__main__
Node
p103
(dp104
g2
(i__main__
Node
p105
(dp106
g2
(i__main__
Node
p107
(dp108
g2
Nsg9
Nsg10
I-1
sg11
I7
sg12
Nsg13
Nsbsg9
Nsg10
Nsg11
I6
sg12
S'how'
p109
sg13
(i__main__
Node
p110
(dp111
g2
(i__main__
Node
p112
(dp113
g2
Nsg9
Nsg10
I-1
sg11
I8
sg12
Nsg13
Nsbsg9
Nsg10
Nsg11
I7
sg12
S'storm'
p114
sg13
(i__main__
Node
p115
(dp116
g2
(i__main__
Node
p117
(dp118
g2
(i__main__
Node
p119
(dp120
g2
Nsg9
Nsg10
I1
sg11
I10
sg12
Nsg13
Nsbsg9
Nsg10
Nsg11
I9
sg12
S'rt'
p121
sg13
(i__main__
Node
p122
(dp123
g2
Nsg9
Nsg10
I-1
sg11
I10
sg12
Nsg13
Nsbsbsg9
Nsg10
Nsg11
I8
sg12
S'go'
p124
sg13
(i__main__
Node
p125
(dp126
g2
(i__main__
Node
p127
(dp128
g2
Nsg9
Nsg10
I1
sg11
I10
sg12
Nsg13
Nsbsg9
Nsg10
Nsg11
I9
sg12
S'don'
p129
sg13
(i__main__
Node
p130
(dp131
g2
(i__main__
Node
p132
(dp133
g2
Nsg9
Nsg10
I-1
sg11
I11
sg12
Nsg13
Nsbsg9
Nsg10
Nsg11
I10
sg12
S'notic'
p134
sg13
(i__main__
Node
p135
(dp136
g2
(i__main__
Node
p137
(dp138
g2
Nsg9
Nsg10
I-1
sg11
I12
sg12
Nsg13
Nsbsg9
Nsg10
Nsg11
I11
sg12
S'shower'
p139
sg13
(i__main__
Node
p140
(dp141
g2
(i__main__
Node
p142
(dp143
g2
(i__main__
Node
p144
(dp145
g2
Nsg9
Nsg10
I1
sg11
I14
sg12
Nsg13
Nsbsg9
Nsg10
Nsg11
I13
sg12
S'rain'
p146
sg13
(i__main__
Node
p147
(dp148
g2
(i__main__
Node
p149
(dp150
g2
Nsg9
Nsg10
I1
sg11
I15
sg12
Nsg13
Nsbsg9
Nsg10
Nsg11
I14
sg12
S'today'
p151
sg13
(i__main__
Node
p152
(dp153
g2
Nsg9
Nsg10
I-1
sg11
I15
sg12
Nsg13
Nsbsbsbsg9
Nsg10
Nsg11
I12
sg12
S'my'
p154
sg13
(i__main__
Node
p155
(dp156
g2
(i__main__
Node
p157
(dp158
g2
Nsg9
Nsg10
I-1
sg11
I14
sg12
Nsg13
Nsbsg9
Nsg10
Nsg11
I13
sg12
S'anymor'
p159
sg13
(i__main__
Node
p160
(dp161
g2
Nsg9
Nsg10
I1
sg11
I14
sg12
Nsg13
Nsbsbsbsbsbsbsbsbsbsg9
Nsg10
Nsg11
I5
sg12
g49
sg13
(i__main__
Node
p162
(dp163
g2
(i__main__
Node
p164
(dp165
g2
Nsg9
Nsg10
I-1
sg11
I7
sg12
Nsg13
Nsbsg9
Nsg10
Nsg11
I6
sg12
S'jacket'
p166
sg13
(i__main__
Node
p167
(dp168
g2
(i__main__
Node
p169
(dp170
g2
Nsg9
Nsg10
I-1
sg11
I8
sg12
Nsg13
Nsbsg9
Nsg10
Nsg11
I7
sg12
S'were'
p171
sg13
(i__main__
Node
p172
(dp173
g2
(i__main__
Node
p174
(dp175
g2
(i__main__
Node
p176
(dp177
g2
Nsg9
Nsg10
I-1
sg11
I10
sg12
Nsg13
Nsbsg9
Nsg10
Nsg11
I9
sg12
S'still'
p178
sg13
(i__main__
Node
p179
(dp180
g2
(i__main__
Node
p181
(dp182
g2
Nsg9
Nsg10
I1
sg11
I11
sg12
Nsg13
Nsbsg9
Nsg10
Nsg11
I10
sg12
S'here'
p183
sg13
(i__main__
Node
p184
(dp185
g2
(i__main__
Node
p186
(dp187
g2
Nsg9
Nsg10
I1
sg11
I12
sg12
Nsg13
Nsbsg9
Nsg10
Nsg11
I11
sg12
S'warm'
p188
sg13
(i__main__
Node
p189
(dp190
g2
(i__main__
Node
p191
(dp192
g2
Nsg9
Nsg10
I-1
sg11
I13
sg12
Nsg13
Nsbsg9
Nsg10
Nsg11
I12
sg12
S'get'
p193
sg13
(i__main__
Node
p194
(dp195
g2
(i__main__
Node
p196
(dp197
g2
Nsg9
Nsg10
I1
sg11
I14
sg12
Nsg13
Nsbsg9
Nsg10
Nsg11
I13
sg12
S'mention'
p198
sg13
(i__main__
Node
p199
(dp200
g2
(i__main__
Node
p201
(dp202
g2
Nsg9
Nsg10
I-1
sg11
I15
sg12
Nsg13
Nsbsg9
Nsg10
Nsg11
I14
sg12
S'weather'
p203
sg13
(i__main__
Node
p204
(dp205
g2
Nsg9
Nsg10
I1
sg11
I15
sg12
Nsg13
Nsbsbsbsbsbsbsbsg9
Nsg10
Nsg11
I8
sg12
S'we'
p206
sg13
(i__main__
Node
p207
(dp208
g2
(i__main__
Node
p209
(dp210
g2
(i__main__
Node
p211
(dp212
g2
Nsg9
Nsg10
I-1
sg11
I11
sg12
Nsg13
Nsbsg9
Nsg10
Nsg11
I10
sg12
S'partli'
p213
sg13
(i__main__
Node
p214
(dp215
g2
(i__main__
Node
p216
(dp217
g2
Nsg9
Nsg10
I-1
sg11
I12
sg12
Nsg13
Nsbsg9
Nsg10
Nsg11
I11
sg12
S'tire'
p218
sg13
(i__main__
Node
p219
(dp220
g2
(i__main__
Node
p221
(dp222
g2
Nsg9
Nsg10
I-1
sg11
I13
sg12
Nsg13
Nsbsg9
Nsg10
Nsg11
I12
sg12
S'when'
p223
sg13
(i__main__
Node
p224
(dp225
g2
(i__main__
Node
p226
(dp227
g2
Nsg9
Nsg10
I-1
sg11
I14
sg12
Nsg13
Nsbsg9
Nsg10
Nsg11
I13
sg12
S'life'
p228
sg13
(i__main__
Node
p229
(dp230
g2
(i__main__
Node
p231
(dp232
g2
Nsg9
Nsg10
I-1
sg11
I15
sg12
Nsg13
Nsbsg9
Nsg10
Nsg11
I14
sg12
S'darwinnt'
p233
sg13
(i__main__
Node
p234
(dp235
g2
Nsg9
Nsg10
I1
sg11
I15
sg12
Nsg13
Nsbsbsbsbsbsbsg9
Nsg10
Nsg11
I9
sg12
g188
sg13
(i__main__
Node
p236
(dp237
g2
(i__main__
Node
p238
(dp239
g2
Nsg9
Nsg10
I-1
sg11
I11
sg12
Nsg13
Nsbsg9
Nsg10
Nsg11
I10
sg12
S'81'
p240
sg13
(i__main__
Node
p241
(dp242
g2
(i__main__
Node
p243
(dp244
g2
(i__main__
Node
p245
(dp246
g2
Nsg9
Nsg10
I-1
sg11
I13
sg12
Nsg13
Nsbsg9
Nsg10
Nsg11
I12
sg12
S'beauti'
p247
sg13
(i__main__
Node
p248
(dp249
g2
(i__main__
Node
p250
(dp251
g2
Nsg9
Nsg10
I-1
sg11
I14
sg12
Nsg13
Nsbsg9
Nsg10
Nsg11
I13
sg12
S'spot'
p252
sg13
(i__main__
Node
p253
(dp254
g2
(i__main__
Node
p255
(dp256
g2
Nsg9
Nsg10
I-1
sg11
I15
sg12
Nsg13
Nsbsg9
Nsg10
Nsg11
I14
sg12
S'citi'
p257
sg13
(i__main__
Node
p258
(dp259
g2
Nsg9
Nsg10
I1
sg11
I15
sg12
Nsg13
Nsbsbsbsbsg9
Nsg10
Nsg11
I11
sg12
S'like'
p260
sg13
(i__main__
Node
p261
(dp262
g2
(i__main__
Node
p263
(dp264
g2
(i__main__
Node
p265
(dp266
g2
Nsg9
Nsg10
I1
sg11
I14
sg12
Nsg13
Nsbsg9
Nsg10
Nsg11
I13
sg12
g247
sg13
(i__main__
Node
p267
(dp268
g2
Nsg9
Nsg10
I-1
sg11
I14
sg12
Nsg13
Nsbsbsg9
Nsg10
Nsg11
I12
sg12
S'near'
p269
sg13
(i__main__
Node
p270
(dp271
g2
(i__main__
Node
p272
(dp273
g2
(i__main__
Node
p274
(dp275
g2
Nsg9
Nsg10
I1
sg11
I15
sg12
Nsg13
Nsbsg9
Nsg10
Nsg11
I14
sg12
g183
sg13
(i__main__
Node
p276
(dp277
g2
Nsg9
Nsg10
I-1
sg11
I15
sg12
Nsg13
Nsbsbsg9
Nsg10
Nsg11
I13
sg12
S'sit'
p278
sg13
(i__main__
Node
p279
(dp280
g2
(i__main__
Node
p281
(dp282
g2
Nsg9
Nsg10
I-1
sg11
I15
sg12
Nsg13
Nsbsg9
Nsg10
Nsg11
I14
sg12
S'tue'
p283
sg13
(i__main__
Node
p284
(dp285
g2
Nsg9
Nsg10
I1
sg11
I15
sg12
Nsg13
Nsbsbsbsbsbsbsbsbsbsbsbsbsbsbsg9
Nsg10
Nsg11
I1
sg12
S'sunni'
p286
sg13
(i__main__
Node
p287
(dp288
g2
(i__main__
Node
p289
(dp290
g2
(i__main__
Node
p291
(dp292
g2
(i__main__
Node
p293
(dp294
g2
Nsg9
Nsg10
I1
sg11
I5
sg12
Nsg13
Nsbsg9
Nsg10
Nsg11
I4
sg12
S'hello'
p295
sg13
(i__main__
Node
p296
(dp297
g2
(i__main__
Node
p298
(dp299
g2
(i__main__
Node
p300
(dp301
g2
Nsg9
Nsg10
I-1
sg11
I7
sg12
Nsg13
Nsbsg9
Nsg10
Nsg11
I6
sg12
g49
sg13
(i__main__
Node
p302
(dp303
g2
(i__main__
Node
p304
(dp305
g2
Nsg9
Nsg10
I-1
sg11
I8
sg12
Nsg13
Nsbsg9
Nsg10
Nsg11
I7
sg12
S'time'
p306
sg13
(i__main__
Node
p307
(dp308
g2
Nsg9
Nsg10
I1
sg11
I8
sg12
Nsg13
Nsbsbsbsg9
Nsg10
Nsg11
I5
sg12
g154
sg13
(i__main__
Node
p309
(dp310
g2
(i__main__
Node
p311
(dp312
g2
Nsg9
Nsg10
I1
sg11
I7
sg12
Nsg13
Nsbsg9
Nsg10
Nsg11
I6
sg12
S'am'
p313
sg13
(i__main__
Node
p314
(dp315
g2
Nsg9
Nsg10
I-1
sg11
I7
sg12
Nsg13
Nsbsbsbsbsg9
Nsg10
Nsg11
I3
sg12
S'where'
p316
sg13
(i__main__
Node
p317
(dp318
g2
(i__main__
Node
p319
(dp320
g2
(i__main__
Node
p321
(dp322
g2
Nsg9
Nsg10
I1
sg11
I6
sg12
Nsg13
Nsbsg9
Nsg10
Nsg11
I5
sg12
S'll'
p323
sg13
(i__main__
Node
p324
(dp325
g2
(i__main__
Node
p326
(dp327
g2
Nsg9
Nsg10
I1
sg11
I7
sg12
Nsg13
Nsbsg9
Nsg10
Nsg11
I6
sg12
S'see'
p328
sg13
(i__main__
Node
p329
(dp330
g2
(i__main__
Node
p331
(dp332
g2
Nsg9
Nsg10
I-1
sg11
I8
sg12
Nsg13
Nsbsg9
Nsg10
Nsg11
I7
sg12
g154
sg13
(i__main__
Node
p333
(dp334
g2
(i__main__
Node
p335
(dp336
g2
Nsg9
Nsg10
I1
sg11
I9
sg12
Nsg13
Nsbsg9
Nsg10
Nsg11
I8
sg12
S'out'
p337
sg13
(i__main__
Node
p338
(dp339
g2
(i__main__
Node
p340
(dp341
g2
Nsg9
Nsg10
I-1
sg11
I10
sg12
Nsg13
Nsbsg9
Nsg10
Nsg11
I9
sg12
S'd'
p342
sg13
(i__main__
Node
p343
(dp344
g2
(i__main__
Node
p345
(dp346
g2
Nsg9
Nsg10
I-1
sg11
I11
sg12
Nsg13
Nsbsg9
Nsg10
Nsg11
I10
sg12
g54
sg13
(i__main__
Node
p347
(dp348
g2
(i__main__
Node
p349
(dp350
g2
Nsg9
Nsg10
I1
sg11
I12
sg12
Nsg13
Nsbsg9
Nsg10
Nsg11
I11
sg12
S'jealou'
p351
sg13
(i__main__
Node
p352
(dp353
g2
(i__main__
Node
p354
(dp355
g2
Nsg9
Nsg10
I1
sg11
I13
sg12
Nsg13
Nsbsg9
Nsg10
Nsg11
I12
sg12
S'let'
p356
sg13
(i__main__
Node
p357
(dp358
g2
(i__main__
Node
p359
(dp360
g2
Nsg9
Nsg10
I-1
sg11
I14
sg12
Nsg13
Nsbsg9
Nsg10
Nsg11
I13
sg12
g206
sg13
(i__main__
Node
p361
(dp362
g2
(i__main__
Node
p363
(dp364
g2
Nsg9
Nsg10
I-1
sg11
I15
sg12
Nsg13
Nsbsg9
Nsg10
Nsg11
I14
sg12
S'wednesday'
p365
sg13
(i__main__
Node
p366
(dp367
g2
Nsg9
Nsg10
I1
sg11
I15
sg12
Nsg13
Nsbsbsbsbsbsbsbsbsbsbsbsg9
Nsg10
Nsg11
I4
sg12
g146
sg13
(i__main__
Node
p368
(dp369
g2
(i__main__
Node
p370
(dp371
g2
Nsg9
Nsg10
I-1
sg11
I6
sg12
Nsg13
Nsbsg9
Nsg10
Nsg11
I5
sg12
S'mr'
p372
sg13
(i__main__
Node
p373
(dp374
g2
(i__main__
Node
p375
(dp376
g2
Nsg9
Nsg10
I-1
sg11
I7
sg12
Nsg13
Nsbsg9
Nsg10
Nsg11
I6
sg12
S'been'
p377
sg13
(i__main__
Node
p378
(dp379
g2
(i__main__
Node
p380
(dp381
g2
(i__main__
Node
p382
(dp383
g2
Nsg9
Nsg10
I1
sg11
I9
sg12
Nsg13
Nsbsg9
Nsg10
Nsg11
I8
sg12
S'daughter'
p384
sg13
(i__main__
Node
p385
(dp386
g2
Nsg9
Nsg10
I-1
sg11
I9
sg12
Nsg13
Nsbsbsg9
Nsg10
Nsg11
I7
sg12
S'would'
p387
sg13
(i__main__
Node
p388
(dp389
g2
(i__main__
Node
p390
(dp391
g2
Nsg9
Nsg10
I-1
sg11
I9
sg12
Nsg13
Nsbsg9
Nsg10
Nsg11
I8
sg12
S'flood'
p392
sg13
(i__main__
Node
p393
(dp394
g2
(i__main__
Node
p395
(dp396
g2
(i__main__
Node
p397
(dp398
g2
Nsg9
Nsg10
I-1
sg11
I11
sg12
Nsg13
Nsbsg9
Nsg10
Nsg11
I10
sg12
g109
sg13
(i__main__
Node
p399
(dp400
g2
(i__main__
Node
p401
(dp402
g2
Nsg9
Nsg10
I1
sg11
I12
sg12
Nsg13
Nsbsg9
Nsg10
Nsg11
I11
sg12
S'colorado'
p403
sg13
(i__main__
Node
p404
(dp405
g2
(i__main__
Node
p406
(dp407
g2
Nsg9
Nsg10
I1
sg11
I13
sg12
Nsg13
Nsbsg9
Nsg10
Nsg11
I12
sg12
g79
sg13
(i__main__
Node
p408
(dp409
g2
(i__main__
Node
p410
(dp411
g2
Nsg9
Nsg10
I1
sg11
I14
sg12
Nsg13
Nsbsg9
Nsg10
Nsg11
I13
sg12
g328
sg13
(i__main__
Node
p412
(dp413
g2
Nsg9
Nsg10
I-1
sg11
I14
sg12
Nsg13
Nsbsbsbsbsbsg9
Nsg10
Nsg11
I9
sg12
S'state'
p414
sg13
(i__main__
Node
p415
(dp416
g2
(i__main__
Node
p417
(dp418
g2
Nsg9
Nsg10
I-1
sg11
I11
sg12
Nsg13
Nsbsg9
Nsg10
Nsg11
I10
sg12
S'nowplay'
p419
sg13
(i__main__
Node
p420
(dp421
g2
(i__main__
Node
p422
(dp423
g2
Nsg9
Nsg10
I-1
sg11
I12
sg12
Nsg13
Nsbsg9
Nsg10
Nsg11
I11
sg12
S'crazi'
p424
sg13
(i__main__
Node
p425
(dp426
g2
(i__main__
Node
p427
(dp428
g2
Nsg9
Nsg10
I-1
sg11
I13
sg12
Nsg13
Nsbsg9
Nsg10
Nsg11
I12
sg12
S'might'
p429
sg13
(i__main__
Node
p430
(dp431
g2
(i__main__
Node
p432
(dp433
g2
(i__main__
Node
p434
(dp435
g2
Nsg9
Nsg10
I-1
sg11
I15
sg12
Nsg13
Nsbsg9
Nsg10
Nsg11
I14
sg12
S's'
p436
sg13
(i__main__
Node
p437
(dp438
g2
Nsg9
Nsg10
I1
sg11
I15
sg12
Nsg13
Nsbsbsg9
Nsg10
Nsg11
I13
sg12
g178
sg13
(i__main__
Node
p439
(dp440
g2
(i__main__
Node
p441
(dp442
g2
Nsg9
Nsg10
I1
sg11
I15
sg12
Nsg13
Nsbsg9
Nsg10
Nsg11
I14
sg12
g203
sg13
(i__main__
Node
p443
(dp444
g2
Nsg9
Nsg10
I1
sg11
I15
sg12
Nsg13
Nsbsbsbsbsbsbsbsbsbsbsbsbsbsg9
Nsg10
Nsg11
I2
sg12
S'sunshin'
p445
sg13
(i__main__
Node
p446
(dp447
g2
(i__main__
Node
p448
(dp449
g2
(i__main__
Node
p450
(dp451
g2
Nsg9
Nsg10
I-1
sg11
I5
sg12
Nsg13
Nsbsg9
Nsg10
Nsg11
I4
sg12
S'thunderstorm'
p452
sg13
(i__main__
Node
p453
(dp454
g2
(i__main__
Node
p455
(dp456
g2
(i__main__
Node
p457
(dp458
g2
Nsg9
Nsg10
I1
sg11
I7
sg12
Nsg13
Nsbsg9
Nsg10
Nsg11
I6
sg12
g377
sg13
(i__main__
Node
p459
(dp460
g2
(i__main__
Node
p461
(dp462
g2
(i__main__
Node
p463
(dp464
g2
Nsg9
Nsg10
I-1
sg11
I9
sg12
Nsg13
Nsbsg9
Nsg10
Nsg11
I8
sg12
S'fuh'
p465
sg13
(i__main__
Node
p466
(dp467
g2
Nsg9
Nsg10
I1
sg11
I9
sg12
Nsg13
Nsbsbsg9
Nsg10
Nsg11
I7
sg12
g337
sg13
(i__main__
Node
p468
(dp469
g2
(i__main__
Node
p470
(dp471
g2
(i__main__
Node
p472
(dp473
g2
Nsg9
Nsg10
I-1
sg11
I10
sg12
Nsg13
Nsbsg9
Nsg10
Nsg11
I9
sg12
S'bit'
p474
sg13
(i__main__
Node
p475
(dp476
g2
Nsg9
Nsg10
I1
sg11
I10
sg12
Nsg13
Nsbsbsg9
Nsg10
Nsg11
I8
sg12
S'summer'
p477
sg13
(i__main__
Node
p478
(dp479
g2
(i__main__
Node
p480
(dp481
g2
Nsg9
Nsg10
I1
sg11
I10
sg12
Nsg13
Nsbsg9
Nsg10
Nsg11
I9
sg12
g44
sg13
(i__main__
Node
p482
(dp483
g2
(i__main__
Node
p484
(dp485
g2
Nsg9
Nsg10
I1
sg11
I11
sg12
Nsg13
Nsbsg9
Nsg10
Nsg11
I10
sg12
S'pittsburgh'
p486
sg13
(i__main__
Node
p487
(dp488
g2
Nsg9
Nsg10
I-1
sg11
I11
sg12
Nsg13
Nsbsbsbsbsbsbsg9
Nsg10
Nsg11
I5
sg12
g436
sg13
(i__main__
Node
p489
(dp490
g2
(i__main__
Node
p491
(dp492
g2
Nsg9
Nsg10
I1
sg11
I7
sg12
Nsg13
Nsbsg9
Nsg10
Nsg11
I6
sg12
S'shine'
p493
sg13
(i__main__
Node
p494
(dp495
g2
(i__main__
Node
p496
(dp497
g2
Nsg9
Nsg10
I1
sg11
I8
sg12
Nsg13
Nsbsg9
Nsg10
Nsg11
I7
sg12
g188
sg13
(i__main__
Node
p498
(dp499
g2
(i__main__
Node
p500
(dp501
g2
(i__main__
Node
p502
(dp503
g2
Nsg9
Nsg10
I1
sg11
I10
sg12
Nsg13
Nsbsg9
Nsg10
Nsg11
I9
sg12
g198
sg13
(i__main__
Node
p504
(dp505
g2
(i__main__
Node
p506
(dp507
g2
Nsg9
Nsg10
I-1
sg11
I11
sg12
Nsg13
Nsbsg9
Nsg10
Nsg11
I10
sg12
S'back'
p508
sg13
(i__main__
Node
p509
(dp510
g2
(i__main__
Node
p511
(dp512
g2
Nsg9
Nsg10
I1
sg11
I12
sg12
Nsg13
Nsbsg9
Nsg10
Nsg11
I11
sg12
S'you'
p513
sg13
(i__main__
Node
p514
(dp515
g2
(i__main__
Node
p516
(dp517
g2
Nsg9
Nsg10
I-1
sg11
I13
sg12
Nsg13
Nsbsg9
Nsg10
Nsg11
I12
sg12
g477
sg13
(i__main__
Node
p518
(dp519
g2
(i__main__
Node
p520
(dp521
g2
Nsg9
Nsg10
I-1
sg11
I14
sg12
Nsg13
Nsbsg9
Nsg10
Nsg11
I13
sg12
S'current'
p522
sg13
(i__main__
Node
p523
(dp524
g2
(i__main__
Node
p525
(dp526
g2
Nsg9
Nsg10
I-1
sg11
I15
sg12
Nsg13
Nsbsg9
Nsg10
Nsg11
I14
sg12
S'sat'
p527
sg13
(i__main__
Node
p528
(dp529
g2
Nsg9
Nsg10
I1
sg11
I15
sg12
Nsg13
Nsbsbsbsbsbsbsbsg9
Nsg10
Nsg11
I8
sg12
g203
sg13
(i__main__
Node
p530
(dp531
g2
(i__main__
Node
p532
(dp533
g2
Nsg9
Nsg10
I1
sg11
I10
sg12
Nsg13
Nsbsg9
Nsg10
Nsg11
I9
sg12
g151
sg13
(i__main__
Node
p534
(dp535
g2
(i__main__
Node
p536
(dp537
g2
Nsg9
Nsg10
I1
sg11
I11
sg12
Nsg13
Nsbsg9
Nsg10
Nsg11
I10
sg12
S'way'
p538
sg13
(i__main__
Node
p539
(dp540
g2
(i__main__
Node
p541
(dp542
g2
(i__main__
Node
p543
(dp544
g2
Nsg9
Nsg10
I1
sg11
I13
sg12
Nsg13
Nsbsg9
Nsg10
Nsg11
I12
sg12
g54
sg13
(i__main__
Node
p545
(dp546
g2
(i__main__
Node
p547
(dp548
g2
Nsg9
Nsg10
I1
sg11
I14
sg12
Nsg13
Nsbsg9
Nsg10
Nsg11
I13
sg12
g223
sg13
(i__main__
Node
p549
(dp550
g2
(i__main__
Node
p551
(dp552
g2
Nsg9
Nsg10
I-1
sg11
I15
sg12
Nsg13
Nsbsg9
Nsg10
Nsg11
I14
sg12
S'i'
p553
sg13
(i__main__
Node
p554
(dp555
g2
Nsg9
Nsg10
I-1
sg11
I15
sg12
Nsg13
Nsbsbsbsbsg9
Nsg10
Nsg11
I11
sg12
g337
sg13
(i__main__
Node
p556
(dp557
g2
(i__main__
Node
p558
(dp559
g2
Nsg9
Nsg10
I1
sg11
I13
sg12
Nsg13
Nsbsg9
Nsg10
Nsg11
I12
sg12
g228
sg13
(i__main__
Node
p560
(dp561
g2
(i__main__
Node
p562
(dp563
g2
Nsg9
Nsg10
I1
sg11
I14
sg12
Nsg13
Nsbsg9
Nsg10
Nsg11
I13
sg12
S'love'
p564
sg13
(i__main__
Node
p565
(dp566
g2
(i__main__
Node
p567
(dp568
g2
Nsg9
Nsg10
I1
sg11
I15
sg12
Nsg13
Nsbsg9
Nsg10
Nsg11
I14
sg12
g328
sg13
(i__main__
Node
p569
(dp570
g2
Nsg9
Nsg10
I-1
sg11
I15
sg12
Nsg13
Nsbsbsbsbsbsbsbsbsbsbsbsbsg9
Nsg10
Nsg11
I3
sg12
S'sun'
p571
sg13
(i__main__
Node
p572
(dp573
g2
(i__main__
Node
p574
(dp575
g2
(i__main__
Node
p576
(dp577
g2
(i__main__
Node
p578
(dp579
g2
Nsg9
Nsg10
I-1
sg11
I7
sg12
Nsg13
Nsbsg9
Nsg10
Nsg11
I6
sg12
g19
sg13
(i__main__
Node
p580
(dp581
g2
(i__main__
Node
p582
(dp583
g2
Nsg9
Nsg10
I-1
sg11
I8
sg12
Nsg13
Nsbsg9
Nsg10
Nsg11
I7
sg12
g564
sg13
(i__main__
Node
p584
(dp585
g2
Nsg9
Nsg10
I1
sg11
I8
sg12
Nsg13
Nsbsbsbsg9
Nsg10
Nsg11
I5
sg12
g14
sg13
(i__main__
Node
p586
(dp587
g2
Nsg9
Nsg10
I-1
sg11
I6
sg12
Nsg13
Nsbsbsg9
Nsg10
Nsg11
I4
sg12
S'tan'
p588
sg13
(i__main__
Node
p589
(dp590
g2
(i__main__
Node
p591
(dp592
g2
(i__main__
Node
p593
(dp594
g2
Nsg9
Nsg10
I1
sg11
I7
sg12
Nsg13
Nsbsg9
Nsg10
Nsg11
I6
sg12
g79
sg13
(i__main__
Node
p595
(dp596
g2
Nsg9
Nsg10
I-1
sg11
I7
sg12
Nsg13
Nsbsbsg9
Nsg10
Nsg11
I5
sg12
S'finish'
p597
sg13
(i__main__
Node
p598
(dp599
g2
(i__main__
Node
p600
(dp601
g2
Nsg9
Nsg10
I1
sg11
I7
sg12
Nsg13
Nsbsg9
Nsg10
Nsg11
I6
sg12
S'spam'
p602
sg13
(i__main__
Node
p603
(dp604
g2
(i__main__
Node
p605
(dp606
g2
Nsg9
Nsg10
I1
sg11
I8
sg12
Nsg13
Nsbsg9
Nsg10
Nsg11
I7
sg12
S'spf'
p607
sg13
(i__main__
Node
p608
(dp609
g2
(i__main__
Node
p610
(dp611
g2
Nsg9
Nsg10
I1
sg11
I9
sg12
Nsg13
Nsbsg9
Nsg10
Nsg11
I8
sg12
S'sunris'
p612
sg13
(i__main__
Node
p613
(dp614
g2
(i__main__
Node
p615
(dp616
g2
(i__main__
Node
p617
(dp618
g2
Nsg9
Nsg10
I1
sg11
I11
sg12
Nsg13
Nsbsg9
Nsg10
Nsg11
I10
sg12
g183
sg13
(i__main__
Node
p619
(dp620
g2
Nsg9
Nsg10
I-1
sg11
I11
sg12
Nsg13
Nsbsbsg9
Nsg10
Nsg11
I9
sg12
S'sunnier'
p621
sg13
(i__main__
Node
p622
(dp623
g2
(i__main__
Node
p624
(dp625
g2
(i__main__
Node
p626
(dp627
g2
Nsg9
Nsg10
I-1
sg11
I12
sg12
Nsg13
Nsbsg9
Nsg10
Nsg11
I11
sg12
Nsg13
(i__main__
Node
p628
(dp629
g2
(i__main__
Node
p630
(dp631
g2
Nsg9
Nsg10
I-1
sg11
I13
sg12
Nsg13
Nsbsg9
Nsg10
Nsg11
I12
sg12
Nsg13
(i__main__
Node
p632
(dp633
g2
(i__main__
Node
p634
(dp635
g2
Nsg9
Nsg10
I-1
sg11
I14
sg12
Nsg13
Nsbsg9
Nsg10
Nsg11
I13
sg12
Nsg13
(i__main__
Node
p636
(dp637
g2
(i__main__
Node
p638
(dp639
g2
Nsg9
Nsg10
I-1
sg11
I15
sg12
Nsg13
Nsbsg9
Nsg10
Nsg11
I14
sg12
Nsg13
(i__main__
Node
p640
(dp641
g2
Nsg9
Nsg10
I-1
sg11
I15
sg12
Nsg13
Nsbsbsbsbsbsg9
Nsg10
Nsg11
I10
sg12
S'babe'
p642
sg13
(i__main__
Node
p643
(dp644
g2
(i__main__
Node
p645
(dp646
g2
(i__main__
Node
p647
(dp648
g2
Nsg9
Nsg10
I1
sg11
I13
sg12
Nsg13
Nsbsg9
Nsg10
Nsg11
I12
sg12
g477
sg13
(i__main__
Node
p649
(dp650
g2
Nsg9
Nsg10
I-1
sg11
I13
sg12
Nsg13
Nsbsbsg9
Nsg10
Nsg11
I11
sg12
S'board'
p651
sg13
(i__main__
Node
p652
(dp653
g2
(i__main__
Node
p654
(dp655
g2
(i__main__
Node
p656
(dp657
g2
Nsg9
Nsg10
I-1
sg11
I14
sg12
Nsg13
Nsbsg9
Nsg10
Nsg11
I13
sg12
g553
sg13
(i__main__
Node
p658
(dp659
g2
(i__main__
Node
p660
(dp661
g2
Nsg9
Nsg10
I-1
sg11
I15
sg12
Nsg13
Nsbsg9
Nsg10
Nsg11
I14
sg12
g198
sg13
(i__main__
Node
p662
(dp663
g2
Nsg9
Nsg10
I-1
sg11
I15
sg12
Nsg13
Nsbsbsbsg9
Nsg10
Nsg11
I12
sg12
g564
sg13
(i__main__
Node
p664
(dp665
g2
(i__main__
Node
p666
(dp667
g2
(i__main__
Node
p668
(dp669
g2
Nsg9
Nsg10
I-1
sg11
I15
sg12
Nsg13
Nsbsg9
Nsg10
Nsg11
I14
sg12
g436
sg13
(i__main__
Node
p670
(dp671
g2
Nsg9
Nsg10
I-1
sg11
I15
sg12
Nsg13
Nsbsbsg9
Nsg10
Nsg11
I13
sg12
g151
sg13
(i__main__
Node
p672
(dp673
g2
Nsg9
Nsg10
I-1
sg11
I14
sg12
Nsg13
Nsbsbsbsbsbsbsbsbsbsbsbsbsbsb.