(i__main__
Node
p0
(dp1
S'right'
p2
(i__main__
Node
p3
(dp4
g2
(i__main__
Node
p5
(dp6
g2
(i__main__
Node
p7
(dp8
g2
(i__main__
Node
p9
(dp10
g2
NsS'parser'
p11
NsS'label'
p12
I1
sS'depth'
p13
I5
sS'criterion'
p14
NsS'left'
p15
Nsbsg11
Nsg12
Nsg13
I4
sg14
S'45f'
p16
sg15
(i__main__
Node
p17
(dp18
g2
(i__main__
Node
p19
(dp20
g2
Nsg11
Nsg12
I1
sg13
I6
sg14
Nsg15
Nsbsg11
Nsg12
Nsg13
I5
sg14
S'71'
p21
sg15
(i__main__
Node
p22
(dp23
g2
(i__main__
Node
p24
(dp25
g2
(i__main__
Node
p26
(dp27
g2
Nsg11
Nsg12
I1
sg13
I8
sg14
Nsg15
Nsbsg11
Nsg12
Nsg13
I7
sg14
S'8mph'
p28
sg15
(i__main__
Node
p29
(dp30
g2
Nsg11
Nsg12
I-1
sg13
I8
sg14
Nsg15
Nsbsbsg11
Nsg12
Nsg13
I6
sg14
S'h'
p31
sg15
(i__main__
Node
p32
(dp33
g2
Nsg11
Nsg12
I-1
sg13
I7
sg14
Nsg15
Nsbsbsbsbsg11
Nsg12
Nsg13
I3
sg14
S'54'
p34
sg15
(i__main__
Node
p35
(dp36
g2
(i__main__
Node
p37
(dp38
g2
(i__main__
Node
p39
(dp40
g2
(i__main__
Node
p41
(dp42
g2
Nsg11
Nsg12
I1
sg13
I7
sg14
Nsg15
Nsbsg11
Nsg12
Nsg13
I6
sg14
S'se'
p43
sg15
(i__main__
Node
p44
(dp45
g2
Nsg11
Nsg12
I-1
sg13
I7
sg14
Nsg15
Nsbsbsg11
Nsg12
Nsg13
I5
sg14
S'88'
p46
sg15
(i__main__
Node
p47
(dp48
g2
(i__main__
Node
p49
(dp50
g2
(i__main__
Node
p51
(dp52
g2
Nsg11
Nsg12
I-1
sg13
I8
sg14
Nsg15
Nsbsg11
Nsg12
Nsg13
I7
sg14
S'99'
p53
sg15
(i__main__
Node
p54
(dp55
g2
(i__main__
Node
p56
(dp57
g2
Nsg11
Nsg12
I1
sg13
I9
sg14
Nsg15
Nsbsg11
Nsg12
Nsg13
I8
sg14
S'am'
p58
sg15
(i__main__
Node
p59
(dp60
g2
Nsg11
Nsg12
I-1
sg13
I9
sg14
Nsg15
Nsbsbsbsg11
Nsg12
Nsg13
I6
sg14
S'50'
p61
sg15
(i__main__
Node
p62
(dp63
g2
(i__main__
Node
p64
(dp65
g2
(i__main__
Node
p66
(dp67
g2
Nsg11
Nsg12
I-1
sg13
I9
sg14
Nsg15
Nsbsg11
Nsg12
Nsg13
I8
sg14
g58
sg15
(i__main__
Node
p68
(dp69
g2
(i__main__
Node
p70
(dp71
g2
Nsg11
Nsg12
I-1
sg13
I10
sg14
Nsg15
Nsbsg11
Nsg12
Nsg13
I9
sg14
S'p'
p72
sg15
(i__main__
Node
p73
(dp74
g2
(i__main__
Node
p75
(dp76
g2
Nsg11
Nsg12
I-1
sg13
I11
sg14
Nsg15
Nsbsg11
Nsg12
Nsg13
I10
sg14
S'32'
p77
sg15
(i__main__
Node
p78
(dp79
g2
Nsg11
Nsg12
I1
sg13
I11
sg14
Nsg15
Nsbsbsbsbsg11
Nsg12
Nsg13
I7
sg14
S'30'
p80
sg15
(i__main__
Node
p81
(dp82
g2
Nsg11
Nsg12
I-1
sg13
I8
sg14
Nsg15
Nsbsbsbsbsg11
Nsg12
Nsg13
I4
sg14
S'0'
p83
sg15
(i__main__
Node
p84
(dp85
g2
Nsg11
Nsg12
I-1
sg13
I5
sg14
Nsg15
Nsbsbsbsg11
Nsg12
Nsg13
I2
sg14
S'wind'
p86
sg15
(i__main__
Node
p87
(dp88
g2
(i__main__
Node
p89
(dp90
g2
(i__main__
Node
p91
(dp92
g2
Nsg11
Nsg12
I1
sg13
I5
sg14
Nsg15
Nsbsg11
Nsg12
Nsg13
I4
sg14
S'ye'
p93
sg15
(i__main__
Node
p94
(dp95
g2
(i__main__
Node
p96
(dp97
g2
Nsg11
Nsg12
I1
sg13
I6
sg14
Nsg15
Nsbsg11
Nsg12
Nsg13
I5
sg14
S'anybodi'
p98
sg15
(i__main__
Node
p99
(dp100
g2
(i__main__
Node
p101
(dp102
g2
(i__main__
Node
p103
(dp104
g2
Nsg11
Nsg12
I-1
sg13
I8
sg14
Nsg15
Nsbsg11
Nsg12
Nsg13
I7
sg14
S'shower'
p105
sg15
(i__main__
Node
p106
(dp107
g2
Nsg11
Nsg12
I1
sg13
I8
sg14
Nsg15
Nsbsbsg11
Nsg12
Nsg13
I6
sg14
S'speedway'
p108
sg15
(i__main__
Node
p109
(dp110
g2
Nsg11
Nsg12
I-1
sg13
I7
sg14
Nsg15
Nsbsbsbsbsg11
Nsg12
Nsg13
I3
sg14
S'rain'
p111
sg15
(i__main__
Node
p112
(dp113
g2
(i__main__
Node
p114
(dp115
g2
(i__main__
Node
p116
(dp117
g2
(i__main__
Node
p118
(dp119
g2
Nsg11
Nsg12
I1
sg13
I7
sg14
Nsg15
Nsbsg11
Nsg12
Nsg13
I6
sg14
S'so'
p120
sg15
(i__main__
Node
p121
(dp122
g2
(i__main__
Node
p123
(dp124
g2
Nsg11
Nsg12
I1
sg13
I8
sg14
Nsg15
Nsbsg11
Nsg12
Nsg13
I7
sg14
S'coffe'
p125
sg15
(i__main__
Node
p126
(dp127
g2
Nsg11
Nsg12
I-1
sg13
I8
sg14
Nsg15
Nsbsbsbsg11
Nsg12
Nsg13
I5
sg14
S'perfect'
p128
sg15
(i__main__
Node
p129
(dp130
g2
(i__main__
Node
p131
(dp132
g2
Nsg11
Nsg12
I1
sg13
I7
sg14
Nsg15
Nsbsg11
Nsg12
Nsg13
I6
sg14
S'right'
p133
sg15
(i__main__
Node
p134
(dp135
g2
(i__main__
Node
p136
(dp137
g2
Nsg11
Nsg12
I1
sg13
I8
sg14
Nsg15
Nsbsg11
Nsg12
Nsg13
I7
sg14
S'abt'
p138
sg15
(i__main__
Node
p139
(dp140
g2
Nsg11
Nsg12
I-1
sg13
I8
sg14
Nsg15
Nsbsbsbsbsg11
Nsg12
Nsg13
I4
sg14
S'hot'
p141
sg15
(i__main__
Node
p142
(dp143
g2
(i__main__
Node
p144
(dp145
g2
(i__main__
Node
p146
(dp147
g2
(i__main__
Node
p148
(dp149
g2
Nsg11
Nsg12
I-1
sg13
I8
sg14
Nsg15
Nsbsg11
Nsg12
Nsg13
I7
sg14
S'mention'
p150
sg15
(i__main__
Node
p151
(dp152
g2
Nsg11
Nsg12
I1
sg13
I8
sg14
Nsg15
Nsbsbsg11
Nsg12
Nsg13
I6
sg14
S'make'
p153
sg15
(i__main__
Node
p154
(dp155
g2
(i__main__
Node
p156
(dp157
g2
Nsg11
Nsg12
I1
sg13
I8
sg14
Nsg15
Nsbsg11
Nsg12
Nsg13
I7
sg14
S'travel'
p158
sg15
(i__main__
Node
p159
(dp160
g2
(i__main__
Node
p161
(dp162
g2
Nsg11
Nsg12
I1
sg13
I9
sg14
Nsg15
Nsbsg11
Nsg12
Nsg13
I8
sg14
S'bit'
p163
sg15
(i__main__
Node
p164
(dp165
g2
(i__main__
Node
p166
(dp167
g2
Nsg11
Nsg12
I1
sg13
I10
sg14
Nsg15
Nsbsg11
Nsg12
Nsg13
I9
sg14
S'consider'
p168
sg15
(i__main__
Node
p169
(dp170
g2
(i__main__
Node
p171
(dp172
g2
Nsg11
Nsg12
I1
sg13
I11
sg14
Nsg15
Nsbsg11
Nsg12
Nsg13
I10
sg14
S'realli'
p173
sg15
(i__main__
Node
p174
(dp175
g2
Nsg11
Nsg12
I-1
sg13
I11
sg14
Nsg15
Nsbsbsbsbsbsbsg11
Nsg12
Nsg13
I5
sg14
S'warm'
p176
sg15
(i__main__
Node
p177
(dp178
g2
(i__main__
Node
p179
(dp180
g2
(i__main__
Node
p181
(dp182
g2
Nsg11
Nsg12
I1
sg13
I8
sg14
Nsg15
Nsbsg11
Nsg12
Nsg13
I7
sg14
S'green'
p183
sg15
(i__main__
Node
p184
(dp185
g2
Nsg11
Nsg12
I-1
sg13
I8
sg14
Nsg15
Nsbsbsg11
Nsg12
Nsg13
I6
sg14
S'tornado'
p186
sg15
(i__main__
Node
p187
(dp188
g2
(i__main__
Node
p189
(dp190
g2
(i__main__
Node
p191
(dp192
g2
Nsg11
Nsg12
I1
sg13
I9
sg14
Nsg15
Nsbsg11
Nsg12
Nsg13
I8
sg14
S'around'
p193
sg15
(i__main__
Node
p194
(dp195
g2
(i__main__
Node
p196
(dp197
g2
Nsg11
Nsg12
I1
sg13
I10
sg14
Nsg15
Nsbsg11
Nsg12
Nsg13
I9
sg14
S'da'
p198
sg15
(i__main__
Node
p199
(dp200
g2
(i__main__
Node
p201
(dp202
g2
Nsg11
Nsg12
I1
sg13
I11
sg14
Nsg15
Nsbsg11
Nsg12
Nsg13
I10
sg14
S'mo'
p203
sg15
(i__main__
Node
p204
(dp205
g2
Nsg11
Nsg12
I-1
sg13
I11
sg14
Nsg15
Nsbsbsbsbsg11
Nsg12
Nsg13
I7
sg14
S'cold'
p206
sg15
(i__main__
Node
p207
(dp208
g2
(i__main__
Node
p209
(dp210
g2
(i__main__
Node
p211
(dp212
g2
(i__main__
Node
p213
(dp214
g2
Nsg11
Nsg12
I-1
sg13
I11
sg14
Nsg15
Nsbsg11
Nsg12
Nsg13
I10
sg14
S'holi'
p215
sg15
(i__main__
Node
p216
(dp217
g2
(i__main__
Node
p218
(dp219
g2
Nsg11
Nsg12
I-1
sg13
I12
sg14
Nsg15
Nsbsg11
Nsg12
Nsg13
I11
sg14
S'muscl'
p220
sg15
(i__main__
Node
p221
(dp222
g2
Nsg11
Nsg12
I1
sg13
I12
sg14
Nsg15
Nsbsbsbsg11
Nsg12
Nsg13
I9
sg14
S'just'
p223
sg15
(i__main__
Node
p224
(dp225
g2
(i__main__
Node
p226
(dp227
g2
Nsg11
Nsg12
I1
sg13
I11
sg14
Nsg15
Nsbsg11
Nsg12
Nsg13
I10
sg14
S'san'
p228
sg15
(i__main__
Node
p229
(dp230
g2
Nsg11
Nsg12
I-1
sg13
I11
sg14
Nsg15
Nsbsbsbsg11
Nsg12
Nsg13
I8
sg14
S'degre'
p231
sg15
(i__main__
Node
p232
(dp233
g2
(i__main__
Node
p234
(dp235
g2
(i__main__
Node
p236
(dp237
g2
Nsg11
Nsg12
I1
sg13
I11
sg14
Nsg15
Nsbsg11
Nsg12
Nsg13
I10
sg14
S'past'
p238
sg15
(i__main__
Node
p239
(dp240
g2
(i__main__
Node
p241
(dp242
g2
Nsg11
Nsg12
I1
sg13
I12
sg14
Nsg15
Nsbsg11
Nsg12
Nsg13
I11
sg14
S'plan'
p243
sg15
(i__main__
Node
p244
(dp245
g2
Nsg11
Nsg12
I-1
sg13
I12
sg14
Nsg15
Nsbsbsbsg11
Nsg12
Nsg13
I9
sg14
S'sun'
p246
sg15
(i__main__
Node
p247
(dp248
g2
(i__main__
Node
p249
(dp250
g2
(i__main__
Node
p251
(dp252
g2
Nsg11
Nsg12
I1
sg13
I12
sg14
Nsg15
Nsbsg11
Nsg12
Nsg13
I11
sg14
S'hop'
p253
sg15
(i__main__
Node
p254
(dp255
g2
(i__main__
Node
p256
(dp257
g2
Nsg11
Nsg12
I1
sg13
I13
sg14
Nsg15
Nsbsg11
Nsg12
Nsg13
I12
sg14
S'spark'
p258
sg15
(i__main__
Node
p259
(dp260
g2
Nsg11
Nsg12
I-1
sg13
I13
sg14
Nsg15
Nsbsbsbsg11
Nsg12
Nsg13
I10
sg14
S'storm'
p261
sg15
(i__main__
Node
p262
(dp263
g2
(i__main__
Node
p264
(dp265
g2
(i__main__
Node
p266
(dp267
g2
Nsg11
Nsg12
I1
sg13
I13
sg14
Nsg15
Nsbsg11
Nsg12
Nsg13
I12
sg14
S'bipolar'
p268
sg15
(i__main__
Node
p269
(dp270
g2
Nsg11
Nsg12
I-1
sg13
I13
sg14
Nsg15
Nsbsbsg11
Nsg12
Nsg13
I11
sg14
S'sunni'
p271
sg15
(i__main__
Node
p272
(dp273
g2
(i__main__
Node
p274
(dp275
g2
Nsg11
Nsg12
I-1
sg13
I13
sg14
Nsg15
Nsbsg11
Nsg12
Nsg13
I12
sg14
S'thunderstorm'
p276
sg15
(i__main__
Node
p277
(dp278
g2
(i__main__
Node
p279
(dp280
g2
(i__main__
Node
p281
(dp282
g2
Nsg11
Nsg12
I1
sg13
I15
sg14
Nsg15
Nsbsg11
Nsg12
Nsg13
I14
sg14
S'want'
p283
sg15
(i__main__
Node
p284
(dp285
g2
Nsg11
Nsg12
I-1
sg13
I15
sg14
Nsg15
Nsbsbsg11
Nsg12
Nsg13
I13
sg14
S'warmer'
p286
sg15
(i__main__
Node
p287
(dp288
g2
(i__main__
Node
p289
(dp290
g2
Nsg11
Nsg12
I-1
sg13
I15
sg14
Nsg15
Nsbsg11
Nsg12
Nsg13
I14
sg14
S'flood'
p291
sg15
(i__main__
Node
p292
(dp293
g2
Nsg11
Nsg12
I1
sg13
I15
sg14
Nsg15
Nsbsbsbsbsbsbsbsbsbsbsbsbsbsbsg11
Nsg12
Nsg13
I1
sg14
S'weather'
p294
sg15
(i__main__
Node
p295
(dp296
g2
(i__main__
Node
p297
(dp298
g2
(i__main__
Node
p299
(dp300
g2
Nsg11
Nsg12
I-1
sg13
I4
sg14
Nsg15
Nsbsg11
Nsg12
Nsg13
I3
sg14
S'hockey'
p301
sg15
(i__main__
Node
p302
(dp303
g2
(i__main__
Node
p304
(dp305
g2
Nsg11
Nsg12
I-1
sg13
I5
sg14
Nsg15
Nsbsg11
Nsg12
Nsg13
I4
sg14
S'tri'
p306
sg15
(i__main__
Node
p307
(dp308
g2
Nsg11
Nsg12
I1
sg13
I5
sg14
Nsg15
Nsbsbsbsg11
Nsg12
Nsg13
I2
sg14
S'patrol'
p309
sg15
(i__main__
Node
p310
(dp311
g2
(i__main__
Node
p312
(dp313
g2
(i__main__
Node
p314
(dp315
g2
Nsg11
Nsg12
I1
sg13
I5
sg14
Nsg15
Nsbsg11
Nsg12
Nsg13
I4
sg14
S'thor'
p316
sg15
(i__main__
Node
p317
(dp318
g2
Nsg11
Nsg12
I-1
sg13
I5
sg14
Nsg15
Nsbsbsg11
Nsg12
Nsg13
I3
sg14
g276
sg15
(i__main__
Node
p319
(dp320
g2
(i__main__
Node
p321
(dp322
g2
(i__main__
Node
p323
(dp324
g2
Nsg11
Nsg12
I1
sg13
I6
sg14
Nsg15
Nsbsg11
Nsg12
Nsg13
I5
sg14
S'mansion'
p325
sg15
(i__main__
Node
p326
(dp327
g2
Nsg11
Nsg12
I-1
sg13
I6
sg14
Nsg15
Nsbsbsg11
Nsg12
Nsg13
I4
sg14
S'raini'
p328
sg15
(i__main__
Node
p329
(dp330
g2
(i__main__
Node
p331
(dp332
g2
(i__main__
Node
p333
(dp334
g2
Nsg11
Nsg12
I1
sg13
I7
sg14
Nsg15
Nsbsg11
Nsg12
Nsg13
I6
sg14
S'twitt'
p335
sg15
(i__main__
Node
p336
(dp337
g2
(i__main__
Node
p338
(dp339
g2
Nsg11
Nsg12
I1
sg13
I8
sg14
Nsg15
Nsbsg11
Nsg12
Nsg13
I7
sg14
S'br'
p340
sg15
(i__main__
Node
p341
(dp342
g2
(i__main__
Node
p343
(dp344
g2
Nsg11
Nsg12
I1
sg13
I9
sg14
Nsg15
Nsbsg11
Nsg12
Nsg13
I8
sg14
S'shitti'
p345
sg15
(i__main__
Node
p346
(dp347
g2
(i__main__
Node
p348
(dp349
g2
(i__main__
Node
p350
(dp351
g2
(i__main__
Node
p352
(dp353
g2
Nsg11
Nsg12
I-1
sg13
I12
sg14
Nsg15
Nsbsg11
Nsg12
Nsg13
I11
sg14
S's'
p354
sg15
(i__main__
Node
p355
(dp356
g2
Nsg11
Nsg12
I1
sg13
I12
sg14
Nsg15
Nsbsbsg11
Nsg12
Nsg13
I10
sg14
S'today'
p357
sg15
(i__main__
Node
p358
(dp359
g2
Nsg11
Nsg12
I-1
sg13
I11
sg14
Nsg15
Nsbsbsg11
Nsg12
Nsg13
I9
sg14
S'lot'
p360
sg15
(i__main__
Node
p361
(dp362
g2
(i__main__
Node
p363
(dp364
g2
Nsg11
Nsg12
I1
sg13
I11
sg14
Nsg15
Nsbsg11
Nsg12
Nsg13
I10
sg14
S'ihad'
p365
sg15
(i__main__
Node
p366
(dp367
g2
(i__main__
Node
p368
(dp369
g2
(i__main__
Node
p370
(dp371
g2
Nsg11
Nsg12
I1
sg13
I13
sg14
Nsg15
Nsbsg11
Nsg12
Nsg13
I12
sg14
S'up'
p372
sg15
(i__main__
Node
p373
(dp374
g2
Nsg11
Nsg12
I-1
sg13
I13
sg14
Nsg15
Nsbsbsg11
Nsg12
Nsg13
I11
sg14
S'side'
p375
sg15
(i__main__
Node
p376
(dp377
g2
Nsg11
Nsg12
I-1
sg13
I12
sg14
Nsg15
Nsbsbsbsbsbsbsbsg11
Nsg12
Nsg13
I5
sg14
g271
sg15
(i__main__
Node
p378
(dp379
g2
(i__main__
Node
p380
(dp381
g2
(i__main__
Node
p382
(dp383
g2
Nsg11
Nsg12
I-1
sg13
I8
sg14
Nsg15
Nsbsg11
Nsg12
Nsg13
I7
sg14
S'support'
p384
sg15
(i__main__
Node
p385
(dp386
g2
Nsg11
Nsg12
I1
sg13
I8
sg14
Nsg15
Nsbsbsg11
Nsg12
Nsg13
I6
sg14
S'slush'
p387
sg15
(i__main__
Node
p388
(dp389
g2
(i__main__
Node
p390
(dp391
g2
(i__main__
Node
p392
(dp393
g2
Nsg11
Nsg12
I1
sg13
I9
sg14
Nsg15
Nsbsg11
Nsg12
Nsg13
I8
sg14
S'mobil'
p394
sg15
(i__main__
Node
p395
(dp396
g2
(i__main__
Node
p397
(dp398
g2
Nsg11
Nsg12
I1
sg13
I10
sg14
Nsg15
Nsbsg11
Nsg12
Nsg13
I9
sg14
S'who'
p399
sg15
(i__main__
Node
p400
(dp401
g2
(i__main__
Node
p402
(dp403
g2
Nsg11
Nsg12
I1
sg13
I11
sg14
Nsg15
Nsbsg11
Nsg12
Nsg13
I10
sg14
S're'
p404
sg15
(i__main__
Node
p405
(dp406
g2
(i__main__
Node
p407
(dp408
g2
Nsg11
Nsg12
I1
sg13
I12
sg14
Nsg15
Nsbsg11
Nsg12
Nsg13
I11
sg14
S'canyon'
p409
sg15
(i__main__
Node
p410
(dp411
g2
(i__main__
Node
p412
(dp413
g2
Nsg11
Nsg12
I1
sg13
I13
sg14
Nsg15
Nsbsg11
Nsg12
Nsg13
I12
sg14
S'ugh'
p414
sg15
(i__main__
Node
p415
(dp416
g2
Nsg11
Nsg12
I-1
sg13
I13
sg14
Nsg15
Nsbsbsbsbsbsbsg11
Nsg12
Nsg13
I7
sg14
S'use'
p417
sg15
(i__main__
Node
p418
(dp419
g2
(i__main__
Node
p420
(dp421
g2
(i__main__
Node
p422
(dp423
g2
Nsg11
Nsg12
I-1
sg13
I10
sg14
Nsg15
Nsbsg11
Nsg12
Nsg13
I9
sg14
S'locker'
p424
sg15
(i__main__
Node
p425
(dp426
g2
(i__main__
Node
p427
(dp428
g2
Nsg11
Nsg12
I-1
sg13
I11
sg14
Nsg15
Nsbsg11
Nsg12
Nsg13
I10
sg14
g283
sg15
(i__main__
Node
p429
(dp430
g2
(i__main__
Node
p431
(dp432
g2
Nsg11
Nsg12
I-1
sg13
I12
sg14
Nsg15
Nsbsg11
Nsg12
Nsg13
I11
sg14
S'beauti'
p433
sg15
(i__main__
Node
p434
(dp435
g2
(i__main__
Node
p436
(dp437
g2
Nsg11
Nsg12
I1
sg13
I13
sg14
Nsg15
Nsbsg11
Nsg12
Nsg13
I12
sg14
S'snow'
p438
sg15
(i__main__
Node
p439
(dp440
g2
(i__main__
Node
p441
(dp442
g2
Nsg11
Nsg12
I1
sg13
I14
sg14
Nsg15
Nsbsg11
Nsg12
Nsg13
I13
sg14
S'rt'
p443
sg15
(i__main__
Node
p444
(dp445
g2
Nsg11
Nsg12
I-1
sg13
I14
sg14
Nsg15
Nsbsbsbsbsbsbsg11
Nsg12
Nsg13
I8
sg14
S'white'
p446
sg15
(i__main__
Node
p447
(dp448
g2
(i__main__
Node
p449
(dp450
g2
(i__main__
Node
p451
(dp452
g2
(i__main__
Node
p453
(dp454
g2
Nsg11
Nsg12
I-1
sg13
I12
sg14
Nsg15
Nsbsg11
Nsg12
Nsg13
I11
sg14
g443
sg15
(i__main__
Node
p455
(dp456
g2
(i__main__
Node
p457
(dp458
g2
Nsg11
Nsg12
I-1
sg13
I13
sg14
Nsg15
Nsbsg11
Nsg12
Nsg13
I12
sg14
S'get'
p459
sg15
(i__main__
Node
p460
(dp461
g2
(i__main__
Node
p462
(dp463
g2
Nsg11
Nsg12
I-1
sg13
I14
sg14
Nsg15
Nsbsg11
Nsg12
Nsg13
I13
sg14
S'old'
p464
sg15
(i__main__
Node
p465
(dp466
g2
(i__main__
Node
p467
(dp468
g2
Nsg11
Nsg12
I-1
sg13
I15
sg14
Nsg15
Nsbsg11
Nsg12
Nsg13
I14
sg14
S'one'
p469
sg15
(i__main__
Node
p470
(dp471
g2
Nsg11
Nsg12
I1
sg13
I15
sg14
Nsg15
Nsbsbsbsbsbsg11
Nsg12
Nsg13
I10
sg14
g141
sg15
(i__main__
Node
p472
(dp473
g2
(i__main__
Node
p474
(dp475
g2
Nsg11
Nsg12
I1
sg13
I12
sg14
Nsg15
Nsbsg11
Nsg12
Nsg13
I11
sg14
S'love'
p476
sg15
(i__main__
Node
p477
(dp478
g2
Nsg11
Nsg12
I-1
sg13
I12
sg14
Nsg15
Nsbsbsbsg11
Nsg12
Nsg13
I9
sg14
S'check'
p479
sg15
(i__main__
Node
p480
(dp481
g2
(i__main__
Node
p482
(dp483
g2
(i__main__
Node
p484
(dp485
g2
Nsg11
Nsg12
I1
sg13
I12
sg14
Nsg15
Nsbsg11
Nsg12
Nsg13
I11
sg14
S'nativ'
p486
sg15
(i__main__
Node
p487
(dp488
g2
(i__main__
Node
p489
(dp490
g2
(i__main__
Node
p491
(dp492
g2
Nsg11
Nsg12
I-1
sg13
I14
sg14
Nsg15
Nsbsg11
Nsg12
Nsg13
I13
sg14
S'96'
p493
sg15
(i__main__
Node
p494
(dp495
g2
Nsg11
Nsg12
I1
sg13
I14
sg14
Nsg15
Nsbsbsg11
Nsg12
Nsg13
I12
sg14
S'basebal'
p496
sg15
(i__main__
Node
p497
(dp498
g2
(i__main__
Node
p499
(dp500
g2
(i__main__
Node
p501
(dp502
g2
Nsg11
Nsg12
I-1
sg13
I15
sg14
Nsg15
Nsbsg11
Nsg12
Nsg13
I14
sg14
g141
sg15
(i__main__
Node
p503
(dp504
g2
Nsg11
Nsg12
I1
sg13
I15
sg14
Nsg15
Nsbsbsg11
Nsg12
Nsg13
I13
sg14
S'grad'
p505
sg15
(i__main__
Node
p506
(dp507
g2
(i__main__
Node
p508
(dp509
g2
Nsg11
Nsg12
I-1
sg13
I15
sg14
Nsg15
Nsbsg11
Nsg12
Nsg13
I14
sg14
g150
sg15
(i__main__
Node
p510
(dp511
g2
Nsg11
Nsg12
I-1
sg13
I15
sg14
Nsg15
Nsbsbsbsbsbsg11
Nsg12
Nsg13
I10
sg14
g231
sg15
(i__main__
Node
p512
(dp513
g2
(i__main__
Node
p514
(dp515
g2
(i__main__
Node
p516
(dp517
g2
Nsg11
Nsg12
I1
sg13
I13
sg14
Nsg15
Nsbsg11
Nsg12
Nsg13
I12
sg14
g372
sg15
(i__main__
Node
p518
(dp519
g2
Nsg11
Nsg12
I-1
sg13
I13
sg14
Nsg15
Nsbsbsg11
Nsg12
Nsg13
I11
sg14
S'comput'
p520
sg15
(i__main__
Node
p521
(dp522
g2
(i__main__
Node
p523
(dp524
g2
Nsg11
Nsg12
I1
sg13
I13
sg14
Nsg15
Nsbsg11
Nsg12
Nsg13
I12
sg14
S'nowplay'
p525
sg15
(i__main__
Node
p526
(dp527
g2
(i__main__
Node
p528
(dp529
g2
Nsg11
Nsg12
I1
sg13
I14
sg14
Nsg15
Nsbsg11
Nsg12
Nsg13
I13
sg14
S'tone'
p530
sg15
(i__main__
Node
p531
(dp532
g2
(i__main__
Node
p533
(dp534
g2
Nsg11
Nsg12
I-1
sg13
I15
sg14
Nsg15
Nsbsg11
Nsg12
Nsg13
I14
sg14
S'calm'
p535
sg15
(i__main__
Node
p536
(dp537
g2
Nsg11
Nsg12
I-1
sg13
I15
sg14
Nsg15
Nsbsbsbsbsbsbsbsbsbsbsbsbsbsbsb.