(i__main__
Node
p0
(dp1
S'right'
p2
(i__main__
Node
p3
(dp4
g2
(i__main__
Node
p5
(dp6
g2
(i__main__
Node
p7
(dp8
g2
NsS'parser'
p9
NsS'label'
p10
I-1
sS'depth'
p11
I4
sS'criterion'
p12
NsS'left'
p13
Nsbsg9
Nsg10
Nsg11
I3
sg12
S'here'
p14
sg13
(i__main__
Node
p15
(dp16
g2
Nsg9
Nsg10
I1
sg11
I4
sg12
Nsg13
Nsbsbsg9
Nsg10
Nsg11
I2
sg12
S'rt'
p17
sg13
(i__main__
Node
p18
(dp19
g2
(i__main__
Node
p20
(dp21
g2
Nsg9
Nsg10
I1
sg11
I4
sg12
Nsg13
Nsbsg9
Nsg10
Nsg11
I3
sg12
S'food'
p22
sg13
(i__main__
Node
p23
(dp24
g2
(i__main__
Node
p25
(dp26
g2
(i__main__
Node
p27
(dp28
g2
Nsg9
Nsg10
I1
sg11
I6
sg12
Nsg13
Nsbsg9
Nsg10
Nsg11
I5
sg12
S'garden'
p29
sg13
(i__main__
Node
p30
(dp31
g2
(i__main__
Node
p32
(dp33
g2
Nsg9
Nsg10
I1
sg11
I7
sg12
Nsg13
Nsbsg9
Nsg10
Nsg11
I6
sg12
S'how'
p34
sg13
(i__main__
Node
p35
(dp36
g2
(i__main__
Node
p37
(dp38
g2
Nsg9
Nsg10
I1
sg11
I8
sg12
Nsg13
Nsbsg9
Nsg10
Nsg11
I7
sg12
S'eastern'
p39
sg13
(i__main__
Node
p40
(dp41
g2
(i__main__
Node
p42
(dp43
g2
Nsg9
Nsg10
I1
sg11
I9
sg12
Nsg13
Nsbsg9
Nsg10
Nsg11
I8
sg12
S'sw'
p44
sg13
(i__main__
Node
p45
(dp46
g2
(i__main__
Node
p47
(dp48
g2
Nsg9
Nsg10
I1
sg11
I10
sg12
Nsg13
Nsbsg9
Nsg10
Nsg11
I9
sg12
S'world'
p49
sg13
(i__main__
Node
p50
(dp51
g2
(i__main__
Node
p52
(dp53
g2
Nsg9
Nsg10
I1
sg11
I11
sg12
Nsg13
Nsbsg9
Nsg10
Nsg11
I10
sg12
S'btv'
p54
sg13
(i__main__
Node
p55
(dp56
g2
(i__main__
Node
p57
(dp58
g2
Nsg9
Nsg10
I1
sg11
I12
sg12
Nsg13
Nsbsg9
Nsg10
Nsg11
I11
sg12
S'live'
p59
sg13
(i__main__
Node
p60
(dp61
g2
Nsg9
Nsg10
I-1
sg11
I12
sg12
Nsg13
Nsbsbsbsbsbsbsbsbsg9
Nsg10
Nsg11
I4
sg12
S'weather'
p62
sg13
(i__main__
Node
p63
(dp64
g2
(i__main__
Node
p65
(dp66
g2
Nsg9
Nsg10
I1
sg11
I6
sg12
Nsg13
Nsbsg9
Nsg10
Nsg11
I5
sg12
S'wtf'
p67
sg13
(i__main__
Node
p68
(dp69
g2
Nsg9
Nsg10
I-1
sg11
I6
sg12
Nsg13
Nsbsbsbsbsbsg9
Nsg10
Nsg11
I1
sg12
S'dri'
p70
sg13
(i__main__
Node
p71
(dp72
g2
(i__main__
Node
p73
(dp74
g2
Nsg9
Nsg10
I1
sg11
I3
sg12
Nsg13
Nsbsg9
Nsg10
Nsg11
I2
sg12
S'spam'
p75
sg13
(i__main__
Node
p76
(dp77
g2
(i__main__
Node
p78
(dp79
g2
Nsg9
Nsg10
I1
sg11
I4
sg12
Nsg13
Nsbsg9
Nsg10
Nsg11
I3
sg12
S'thier'
p80
sg13
(i__main__
Node
p81
(dp82
g2
(i__main__
Node
p83
(dp84
g2
(i__main__
Node
p85
(dp86
g2
Nsg9
Nsg10
I1
sg11
I6
sg12
Nsg13
Nsbsg9
Nsg10
Nsg11
I5
sg12
S'plant'
p87
sg13
(i__main__
Node
p88
(dp89
g2
Nsg9
Nsg10
I-1
sg11
I6
sg12
Nsg13
Nsbsbsg9
Nsg10
Nsg11
I4
sg12
S'ag'
p90
sg13
(i__main__
Node
p91
(dp92
g2
Nsg9
Nsg10
I-1
sg11
I5
sg12
Nsg13
Nsbsbsbsbsb.