(i__main__
Node
p0
(dp1
S'right'
p2
(i__main__
Node
p3
(dp4
g2
(i__main__
Node
p5
(dp6
g2
(i__main__
Node
p7
(dp8
g2
NsS'parser'
p9
NsS'label'
p10
I1
sS'depth'
p11
I4
sS'criterion'
p12
NsS'left'
p13
Nsbsg9
Nsg10
Nsg11
I3
sg12
S'video'
p14
sg13
(i__main__
Node
p15
(dp16
g2
(i__main__
Node
p17
(dp18
g2
Nsg9
Nsg10
I1
sg11
I5
sg12
Nsg13
Nsbsg9
Nsg10
Nsg11
I4
sg12
S'notif'
p19
sg13
(i__main__
Node
p20
(dp21
g2
(i__main__
Node
p22
(dp23
g2
Nsg9
Nsg10
I1
sg11
I6
sg12
Nsg13
Nsbsg9
Nsg10
Nsg11
I5
sg12
S'ottawa'
p24
sg13
(i__main__
Node
p25
(dp26
g2
(i__main__
Node
p27
(dp28
g2
(i__main__
Node
p29
(dp30
g2
Nsg9
Nsg10
I1
sg11
I8
sg12
Nsg13
Nsbsg9
Nsg10
Nsg11
I7
sg12
S'mdt'
p31
sg13
(i__main__
Node
p32
(dp33
g2
Nsg9
Nsg10
I-1
sg11
I8
sg12
Nsg13
Nsbsbsg9
Nsg10
Nsg11
I6
sg12
S'11'
p34
sg13
(i__main__
Node
p35
(dp36
g2
(i__main__
Node
p37
(dp38
g2
Nsg9
Nsg10
I1
sg11
I8
sg12
Nsg13
Nsbsg9
Nsg10
Nsg11
I7
sg12
S'am'
p39
sg13
(i__main__
Node
p40
(dp41
g2
(i__main__
Node
p42
(dp43
g2
Nsg9
Nsg10
I1
sg11
I9
sg12
Nsg13
Nsbsg9
Nsg10
Nsg11
I8
sg12
S'colorado'
p44
sg13
(i__main__
Node
p45
(dp46
g2
(i__main__
Node
p47
(dp48
g2
Nsg9
Nsg10
I1
sg11
I10
sg12
Nsg13
Nsbsg9
Nsg10
Nsg11
I9
sg12
S'vermont'
p49
sg13
(i__main__
Node
p50
(dp51
g2
(i__main__
Node
p52
(dp53
g2
Nsg9
Nsg10
I1
sg11
I11
sg12
Nsg13
Nsbsg9
Nsg10
Nsg11
I10
sg12
S'victim'
p54
sg13
(i__main__
Node
p55
(dp56
g2
(i__main__
Node
p57
(dp58
g2
Nsg9
Nsg10
I1
sg11
I12
sg12
Nsg13
Nsbsg9
Nsg10
Nsg11
I11
sg12
S'ft'
p59
sg13
(i__main__
Node
p60
(dp61
g2
Nsg9
Nsg10
I-1
sg11
I12
sg12
Nsg13
Nsbsbsbsbsbsbsbsbsbsbsg9
Nsg10
Nsg11
I2
sg12
S'weather'
p62
sg13
(i__main__
Node
p63
(dp64
g2
(i__main__
Node
p65
(dp66
g2
Nsg9
Nsg10
I1
sg11
I4
sg12
Nsg13
Nsbsg9
Nsg10
Nsg11
I3
sg12
S'more'
p67
sg13
(i__main__
Node
p68
(dp69
g2
Nsg9
Nsg10
I-1
sg11
I4
sg12
Nsg13
Nsbsbsbsg9
Nsg10
Nsg11
I1
sg12
S'flood'
p70
sg13
(i__main__
Node
p71
(dp72
g2
(i__main__
Node
p73
(dp74
g2
(i__main__
Node
p75
(dp76
g2
Nsg9
Nsg10
I1
sg11
I4
sg12
Nsg13
Nsbsg9
Nsg10
Nsg11
I3
sg12
S'modif'
p77
sg13
(i__main__
Node
p78
(dp79
g2
(i__main__
Node
p80
(dp81
g2
Nsg9
Nsg10
I1
sg11
I5
sg12
Nsg13
Nsbsg9
Nsg10
Nsg11
I4
sg12
S'said'
p82
sg13
(i__main__
Node
p83
(dp84
g2
(i__main__
Node
p85
(dp86
g2
Nsg9
Nsg10
I1
sg11
I6
sg12
Nsg13
Nsbsg9
Nsg10
Nsg11
I5
sg12
S'measur'
p87
sg13
(i__main__
Node
p88
(dp89
g2
Nsg9
Nsg10
I-1
sg11
I6
sg12
Nsg13
Nsbsbsbsbsg9
Nsg10
Nsg11
I2
sg12
S'earthquak'
p90
sg13
(i__main__
Node
p91
(dp92
g2
(i__main__
Node
p93
(dp94
g2
(i__main__
Node
p95
(dp96
g2
Nsg9
Nsg10
I1
sg11
I5
sg12
Nsg13
Nsbsg9
Nsg10
Nsg11
I4
sg12
S'i'
p97
sg13
(i__main__
Node
p98
(dp99
g2
Nsg9
Nsg10
I-1
sg11
I5
sg12
Nsg13
Nsbsbsg9
Nsg10
Nsg11
I3
sg12
S'foggi'
p100
sg13
(i__main__
Node
p101
(dp102
g2
(i__main__
Node
p103
(dp104
g2
(i__main__
Node
p105
(dp106
g2
Nsg9
Nsg10
I1
sg11
I6
sg12
Nsg13
Nsbsg9
Nsg10
Nsg11
I5
sg12
S'scam'
p107
sg13
(i__main__
Node
p108
(dp109
g2
(i__main__
Node
p110
(dp111
g2
Nsg9
Nsg10
I1
sg11
I7
sg12
Nsg13
Nsbsg9
Nsg10
Nsg11
I6
sg12
S'bring'
p112
sg13
(i__main__
Node
p113
(dp114
g2
(i__main__
Node
p115
(dp116
g2
Nsg9
Nsg10
I1
sg11
I8
sg12
Nsg13
Nsbsg9
Nsg10
Nsg11
I7
sg12
S'can'
p117
sg13
(i__main__
Node
p118
(dp119
g2
(i__main__
Node
p120
(dp121
g2
Nsg9
Nsg10
I1
sg11
I9
sg12
Nsg13
Nsbsg9
Nsg10
Nsg11
I8
sg12
S'fun'
p122
sg13
(i__main__
Node
p123
(dp124
g2
Nsg9
Nsg10
I-1
sg11
I9
sg12
Nsg13
Nsbsbsbsbsbsg9
Nsg10
Nsg11
I4
sg12
S'blizzard'
p125
sg13
(i__main__
Node
p126
(dp127
g2
(i__main__
Node
p128
(dp129
g2
(i__main__
Node
p130
(dp131
g2
Nsg9
Nsg10
I1
sg11
I7
sg12
Nsg13
Nsbsg9
Nsg10
Nsg11
I6
sg12
S'unforgett'
p132
sg13
(i__main__
Node
p133
(dp134
g2
(i__main__
Node
p135
(dp136
g2
Nsg9
Nsg10
I1
sg11
I8
sg12
Nsg13
Nsbsg9
Nsg10
Nsg11
I7
sg12
S'time'
p137
sg13
(i__main__
Node
p138
(dp139
g2
(i__main__
Node
p140
(dp141
g2
Nsg9
Nsg10
I1
sg11
I9
sg12
Nsg13
Nsbsg9
Nsg10
Nsg11
I8
sg12
S'current'
p142
sg13
(i__main__
Node
p143
(dp144
g2
(i__main__
Node
p145
(dp146
g2
Nsg9
Nsg10
I1
sg11
I10
sg12
Nsg13
Nsbsg9
Nsg10
Nsg11
I9
sg12
S'nation'
p147
sg13
(i__main__
Node
p148
(dp149
g2
(i__main__
Node
p150
(dp151
g2
Nsg9
Nsg10
I1
sg11
I11
sg12
Nsg13
Nsbsg9
Nsg10
Nsg11
I10
sg12
S'tv'
p152
sg13
(i__main__
Node
p153
(dp154
g2
(i__main__
Node
p155
(dp156
g2
Nsg9
Nsg10
I1
sg11
I12
sg12
Nsg13
Nsbsg9
Nsg10
Nsg11
I11
sg12
S'think'
p157
sg13
(i__main__
Node
p158
(dp159
g2
Nsg9
Nsg10
I-1
sg11
I12
sg12
Nsg13
Nsbsbsbsbsbsbsbsg9
Nsg10
Nsg11
I5
sg12
S'hail'
p160
sg13
(i__main__
Node
p161
(dp162
g2
(i__main__
Node
p163
(dp164
g2
(i__main__
Node
p165
(dp166
g2
(i__main__
Node
p167
(dp168
g2
Nsg9
Nsg10
I-1
sg11
I9
sg12
Nsg13
Nsbsg9
Nsg10
Nsg11
I8
sg12
Nsg13
(i__main__
Node
p169
(dp170
g2
(i__main__
Node
p171
(dp172
g2
Nsg9
Nsg10
I-1
sg11
I10
sg12
Nsg13
Nsbsg9
Nsg10
Nsg11
I9
sg12
Nsg13
(i__main__
Node
p173
(dp174
g2
(i__main__
Node
p175
(dp176
g2
Nsg9
Nsg10
I-1
sg11
I11
sg12
Nsg13
Nsbsg9
Nsg10
Nsg11
I10
sg12
Nsg13
(i__main__
Node
p177
(dp178
g2
(i__main__
Node
p179
(dp180
g2
Nsg9
Nsg10
I-1
sg11
I12
sg12
Nsg13
Nsbsg9
Nsg10
Nsg11
I11
sg12
Nsg13
(i__main__
Node
p181
(dp182
g2
(i__main__
Node
p183
(dp184
g2
Nsg9
Nsg10
I-1
sg11
I13
sg12
Nsg13
Nsbsg9
Nsg10
Nsg11
I12
sg12
Nsg13
(i__main__
Node
p185
(dp186
g2
(i__main__
Node
p187
(dp188
g2
Nsg9
Nsg10
I-1
sg11
I14
sg12
Nsg13
Nsbsg9
Nsg10
Nsg11
I13
sg12
Nsg13
(i__main__
Node
p189
(dp190
g2
(i__main__
Node
p191
(dp192
g2
Nsg9
Nsg10
I-1
sg11
I15
sg12
Nsg13
Nsbsg9
Nsg10
Nsg11
I14
sg12
Nsg13
(i__main__
Node
p193
(dp194
g2
Nsg9
Nsg10
I-1
sg11
I15
sg12
Nsg13
Nsbsbsbsbsbsbsbsbsg9
Nsg10
Nsg11
I7
sg12
S'condit'
p195
sg13
(i__main__
Node
p196
(dp197
g2
Nsg9
Nsg10
I1
sg11
I8
sg12
Nsg13
Nsbsbsg9
Nsg10
Nsg11
I6
sg12
S'frednetradio'
p198
sg13
(i__main__
Node
p199
(dp200
g2
(i__main__
Node
p201
(dp202
g2
(i__main__
Node
p203
(dp204
g2
Nsg9
Nsg10
I1
sg11
I9
sg12
Nsg13
Nsbsg9
Nsg10
Nsg11
I8
sg12
S'si'
p205
sg13
(i__main__
Node
p206
(dp207
g2
(i__main__
Node
p208
(dp209
g2
Nsg9
Nsg10
I1
sg11
I10
sg12
Nsg13
Nsbsg9
Nsg10
Nsg11
I9
sg12
S'shyt'
p210
sg13
(i__main__
Node
p211
(dp212
g2
(i__main__
Node
p213
(dp214
g2
Nsg9
Nsg10
I1
sg11
I11
sg12
Nsg13
Nsbsg9
Nsg10
Nsg11
I10
sg12
S'grill'
p215
sg13
(i__main__
Node
p216
(dp217
g2
(i__main__
Node
p218
(dp219
g2
Nsg9
Nsg10
I1
sg11
I12
sg12
Nsg13
Nsbsg9
Nsg10
Nsg11
I11
sg12
S'meat'
p220
sg13
(i__main__
Node
p221
(dp222
g2
(i__main__
Node
p223
(dp224
g2
(i__main__
Node
p225
(dp226
g2
Nsg9
Nsg10
I1
sg11
I14
sg12
Nsg13
Nsbsg9
Nsg10
Nsg11
I13
sg12
S'az'
p227
sg13
(i__main__
Node
p228
(dp229
g2
Nsg9
Nsg10
I-1
sg11
I14
sg12
Nsg13
Nsbsbsg9
Nsg10
Nsg11
I12
sg12
S'se'
p230
sg13
(i__main__
Node
p231
(dp232
g2
(i__main__
Node
p233
(dp234
g2
(i__main__
Node
p235
(dp236
g2
Nsg9
Nsg10
I1
sg11
I15
sg12
Nsg13
Nsbsg9
Nsg10
Nsg11
I14
sg12
S'just'
p237
sg13
(i__main__
Node
p238
(dp239
g2
Nsg9
Nsg10
I-1
sg11
I15
sg12
Nsg13
Nsbsbsg9
Nsg10
Nsg11
I13
sg12
S'got'
p240
sg13
(i__main__
Node
p241
(dp242
g2
Nsg9
Nsg10
I-1
sg11
I14
sg12
Nsg13
Nsbsbsbsbsbsbsbsg9
Nsg10
Nsg11
I7
sg12
S'temp'
p243
sg13
(i__main__
Node
p244
(dp245
g2
(i__main__
Node
p246
(dp247
g2
(i__main__
Node
p248
(dp249
g2
Nsg9
Nsg10
I1
sg11
I10
sg12
Nsg13
Nsbsg9
Nsg10
Nsg11
I9
sg12
g67
sg13
(i__main__
Node
p250
(dp251
g2
Nsg9
Nsg10
I-1
sg11
I10
sg12
Nsg13
Nsbsbsg9
Nsg10
Nsg11
I8
sg12
S'inform'
p252
sg13
(i__main__
Node
p253
(dp254
g2
(i__main__
Node
p255
(dp256
g2
(i__main__
Node
p257
(dp258
g2
Nsg9
Nsg10
I1
sg11
I11
sg12
Nsg13
Nsbsg9
Nsg10
Nsg11
I10
sg12
S'wrong'
p259
sg13
(i__main__
Node
p260
(dp261
g2
(i__main__
Node
p262
(dp263
g2
Nsg9
Nsg10
I1
sg11
I12
sg12
Nsg13
Nsbsg9
Nsg10
Nsg11
I11
sg12
S'raptur'
p264
sg13
(i__main__
Node
p265
(dp266
g2
Nsg9
Nsg10
I-1
sg11
I12
sg12
Nsg13
Nsbsbsbsg9
Nsg10
Nsg11
I9
sg12
S'sleet'
p267
sg13
(i__main__
Node
p268
(dp269
g2
(i__main__
Node
p270
(dp271
g2
(i__main__
Node
p272
(dp273
g2
(i__main__
Node
p274
(dp275
g2
(i__main__
Node
p276
(dp277
g2
Nsg9
Nsg10
I-1
sg11
I14
sg12
Nsg13
Nsbsg9
Nsg10
Nsg11
I13
sg12
S'boston'
p278
sg13
(i__main__
Node
p279
(dp280
g2
Nsg9
Nsg10
I1
sg11
I14
sg12
Nsg13
Nsbsbsg9
Nsg10
Nsg11
I12
sg12
g39
sg13
(i__main__
Node
p281
(dp282
g2
(i__main__
Node
p283
(dp284
g2
Nsg9
Nsg10
I1
sg11
I14
sg12
Nsg13
Nsbsg9
Nsg10
Nsg11
I13
sg12
S'remind'
p285
sg13
(i__main__
Node
p286
(dp287
g2
(i__main__
Node
p288
(dp289
g2
Nsg9
Nsg10
I1
sg11
I15
sg12
Nsg13
Nsbsg9
Nsg10
Nsg11
I14
sg12
S'golf'
p290
sg13
(i__main__
Node
p291
(dp292
g2
Nsg9
Nsg10
I-1
sg11
I15
sg12
Nsg13
Nsbsbsbsbsg9
Nsg10
Nsg11
I11
sg12
S'warm'
p293
sg13
(i__main__
Node
p294
(dp295
g2
(i__main__
Node
p296
(dp297
g2
Nsg9
Nsg10
I1
sg11
I13
sg12
Nsg13
Nsbsg9
Nsg10
Nsg11
I12
sg12
S'hull'
p298
sg13
(i__main__
Node
p299
(dp300
g2
(i__main__
Node
p301
(dp302
g2
Nsg9
Nsg10
I1
sg11
I14
sg12
Nsg13
Nsbsg9
Nsg10
Nsg11
I13
sg12
S'oprah'
p303
sg13
(i__main__
Node
p304
(dp305
g2
(i__main__
Node
p306
(dp307
g2
Nsg9
Nsg10
I1
sg11
I15
sg12
Nsg13
Nsbsg9
Nsg10
Nsg11
I14
sg12
S'rm'
p308
sg13
(i__main__
Node
p309
(dp310
g2
Nsg9
Nsg10
I-1
sg11
I15
sg12
Nsg13
Nsbsbsbsbsbsg9
Nsg10
Nsg11
I10
sg12
g62
sg13
(i__main__
Node
p311
(dp312
g2
(i__main__
Node
p313
(dp314
g2
(i__main__
Node
p315
(dp316
g2
(i__main__
Node
p317
(dp318
g2
Nsg9
Nsg10
I-1
sg11
I14
sg12
Nsg13
Nsbsg9
Nsg10
Nsg11
I13
sg12
S'figur'
p319
sg13
(i__main__
Node
p320
(dp321
g2
Nsg9
Nsg10
I1
sg11
I14
sg12
Nsg13
Nsbsbsg9
Nsg10
Nsg11
I12
sg12
S'look'
p322
sg13
(i__main__
Node
p323
(dp324
g2
Nsg9
Nsg10
I-1
sg11
I13
sg12
Nsg13
Nsbsbsg9
Nsg10
Nsg11
I11
sg12
S'hawaii'
p325
sg13
(i__main__
Node
p326
(dp327
g2
(i__main__
Node
p328
(dp329
g2
Nsg9
Nsg10
I1
sg11
I13
sg12
Nsg13
Nsbsg9
Nsg10
Nsg11
I12
sg12
S'closur'
p330
sg13
(i__main__
Node
p331
(dp332
g2
(i__main__
Node
p333
(dp334
g2
Nsg9
Nsg10
I1
sg11
I14
sg12
Nsg13
Nsbsg9
Nsg10
Nsg11
I13
sg12
S'passion'
p335
sg13
(i__main__
Node
p336
(dp337
g2
(i__main__
Node
p338
(dp339
g2
Nsg9
Nsg10
I-1
sg11
I15
sg12
Nsg13
Nsbsg9
Nsg10
Nsg11
I14
sg12
S'abov'
p340
sg13
(i__main__
Node
p341
(dp342
g2
Nsg9
Nsg10
I-1
sg11
I15
sg12
Nsg13
Nsbsbsbsbsbsbsbsbsbsbsbsbsbsbsb.