(i__main__
Node
p0
(dp1
S'right'
p2
(i__main__
Node
p3
(dp4
g2
(i__main__
Node
p5
(dp6
g2
(i__main__
Node
p7
(dp8
g2
NsS'parser'
p9
NsS'label'
p10
I1
sS'depth'
p11
I4
sS'criterion'
p12
NsS'left'
p13
Nsbsg9
Nsg10
Nsg11
I3
sg12
S'8mb'
p14
sg13
(i__main__
Node
p15
(dp16
g2
(i__main__
Node
p17
(dp18
g2
(i__main__
Node
p19
(dp20
g2
(i__main__
Node
p21
(dp22
g2
Nsg9
Nsg10
I-1
sg11
I7
sg12
Nsg13
Nsbsg9
Nsg10
Nsg11
I6
sg12
S'am'
p23
sg13
(i__main__
Node
p24
(dp25
g2
(i__main__
Node
p26
(dp27
g2
(i__main__
Node
p28
(dp29
g2
Nsg9
Nsg10
I-1
sg11
I9
sg12
Nsg13
Nsbsg9
Nsg10
Nsg11
I8
sg12
S'56'
p30
sg13
(i__main__
Node
p31
(dp32
g2
Nsg9
Nsg10
I1
sg11
I9
sg12
Nsg13
Nsbsbsg9
Nsg10
Nsg11
I7
sg12
S'29'
p33
sg13
(i__main__
Node
p34
(dp35
g2
Nsg9
Nsg10
I-1
sg11
I8
sg12
Nsg13
Nsbsbsbsg9
Nsg10
Nsg11
I5
sg12
S'11'
p36
sg13
(i__main__
Node
p37
(dp38
g2
(i__main__
Node
p39
(dp40
g2
Nsg9
Nsg10
I1
sg11
I7
sg12
Nsg13
Nsbsg9
Nsg10
Nsg11
I6
sg12
S'05'
p41
sg13
(i__main__
Node
p42
(dp43
g2
(i__main__
Node
p44
(dp45
g2
(i__main__
Node
p46
(dp47
g2
Nsg9
Nsg10
I1
sg11
I9
sg12
Nsg13
Nsbsg9
Nsg10
Nsg11
I8
sg12
S'1'
p48
sg13
(i__main__
Node
p49
(dp50
g2
Nsg9
Nsg10
I-1
sg11
I9
sg12
Nsg13
Nsbsbsg9
Nsg10
Nsg11
I7
sg12
S'50'
p51
sg13
(i__main__
Node
p52
(dp53
g2
Nsg9
Nsg10
I-1
sg11
I8
sg12
Nsg13
Nsbsbsbsbsg9
Nsg10
Nsg11
I4
sg12
S'north'
p54
sg13
(i__main__
Node
p55
(dp56
g2
(i__main__
Node
p57
(dp58
g2
Nsg9
Nsg10
I-1
sg11
I6
sg12
Nsg13
Nsbsg9
Nsg10
Nsg11
I5
sg12
S'northwest'
p59
sg13
(i__main__
Node
p60
(dp61
g2
(i__main__
Node
p62
(dp63
g2
(i__main__
Node
p64
(dp65
g2
Nsg9
Nsg10
I1
sg11
I8
sg12
Nsg13
Nsbsg9
Nsg10
Nsg11
I7
sg12
S'e'
p66
sg13
(i__main__
Node
p67
(dp68
g2
(i__main__
Node
p69
(dp70
g2
(i__main__
Node
p71
(dp72
g2
Nsg9
Nsg10
I1
sg11
I10
sg12
Nsg13
Nsbsg9
Nsg10
Nsg11
I9
sg12
S'southwest'
p73
sg13
(i__main__
Node
p74
(dp75
g2
Nsg9
Nsg10
I-1
sg11
I10
sg12
Nsg13
Nsbsbsg9
Nsg10
Nsg11
I8
sg12
S'3mph'
p76
sg13
(i__main__
Node
p77
(dp78
g2
Nsg9
Nsg10
I-1
sg11
I9
sg12
Nsg13
Nsbsbsbsg9
Nsg10
Nsg11
I6
sg12
S'7'
p79
sg13
(i__main__
Node
p80
(dp81
g2
(i__main__
Node
p82
(dp83
g2
(i__main__
Node
p84
(dp85
g2
Nsg9
Nsg10
I-1
sg11
I9
sg12
Nsg13
Nsbsg9
Nsg10
Nsg11
I8
sg12
S'n'
p86
sg13
(i__main__
Node
p87
(dp88
g2
Nsg9
Nsg10
I1
sg11
I9
sg12
Nsg13
Nsbsbsg9
Nsg10
Nsg11
I7
sg12
S'advisori'
p89
sg13
(i__main__
Node
p90
(dp91
g2
(i__main__
Node
p92
(dp93
g2
(i__main__
Node
p94
(dp95
g2
(i__main__
Node
p96
(dp97
g2
Nsg9
Nsg10
I-1
sg11
I11
sg12
Nsg13
Nsbsg9
Nsg10
Nsg11
I10
sg12
S'1mph'
p98
sg13
(i__main__
Node
p99
(dp100
g2
(i__main__
Node
p101
(dp102
g2
Nsg9
Nsg10
I1
sg11
I12
sg12
Nsg13
Nsbsg9
Nsg10
Nsg11
I11
sg12
S'96'
p103
sg13
(i__main__
Node
p104
(dp105
g2
(i__main__
Node
p106
(dp107
g2
Nsg9
Nsg10
I1
sg11
I13
sg12
Nsg13
Nsbsg9
Nsg10
Nsg11
I12
sg12
S'54'
p108
sg13
(i__main__
Node
p109
(dp110
g2
(i__main__
Node
p111
(dp112
g2
Nsg9
Nsg10
I1
sg11
I14
sg12
Nsg13
Nsbsg9
Nsg10
Nsg11
I13
sg12
S'52'
p113
sg13
(i__main__
Node
p114
(dp115
g2
(i__main__
Node
p116
(dp117
g2
Nsg9
Nsg10
I1
sg11
I15
sg12
Nsg13
Nsbsg9
Nsg10
Nsg11
I14
sg12
S'49'
p118
sg13
(i__main__
Node
p119
(dp120
g2
Nsg9
Nsg10
I-1
sg11
I15
sg12
Nsg13
Nsbsbsbsbsbsbsg9
Nsg10
Nsg11
I9
sg12
S'south'
p121
sg13
(i__main__
Node
p122
(dp123
g2
(i__main__
Node
p124
(dp125
g2
Nsg9
Nsg10
I-1
sg11
I11
sg12
Nsg13
Nsbsg9
Nsg10
Nsg11
I10
sg12
S'5mph'
p126
sg13
(i__main__
Node
p127
(dp128
g2
(i__main__
Node
p129
(dp130
g2
Nsg9
Nsg10
I-1
sg11
I12
sg12
Nsg13
Nsbsg9
Nsg10
Nsg11
I11
sg12
S'2mph'
p131
sg13
(i__main__
Node
p132
(dp133
g2
(i__main__
Node
p134
(dp135
g2
Nsg9
Nsg10
I-1
sg11
I13
sg12
Nsg13
Nsbsg9
Nsg10
Nsg11
I12
sg12
S'6mph'
p136
sg13
(i__main__
Node
p137
(dp138
g2
(i__main__
Node
p139
(dp140
g2
(i__main__
Node
p141
(dp142
g2
Nsg9
Nsg10
I-1
sg11
I15
sg12
Nsg13
Nsbsg9
Nsg10
Nsg11
I14
sg12
S'88'
p143
sg13
(i__main__
Node
p144
(dp145
g2
Nsg9
Nsg10
I-1
sg11
I15
sg12
Nsg13
Nsbsbsg9
Nsg10
Nsg11
I13
sg12
S'5'
p146
sg13
(i__main__
Node
p147
(dp148
g2
(i__main__
Node
p149
(dp150
g2
Nsg9
Nsg10
I-1
sg11
I15
sg12
Nsg13
Nsbsg9
Nsg10
Nsg11
I14
sg12
g48
sg13
(i__main__
Node
p151
(dp152
g2
Nsg9
Nsg10
I-1
sg11
I15
sg12
Nsg13
Nsbsbsbsbsbsbsbsg9
Nsg10
Nsg11
I8
sg12
S'f'
p153
sg13
(i__main__
Node
p154
(dp155
g2
(i__main__
Node
p156
(dp157
g2
Nsg9
Nsg10
I-1
sg11
I10
sg12
Nsg13
Nsbsg9
Nsg10
Nsg11
I9
sg12
g113
sg13
(i__main__
Node
p158
(dp159
g2
(i__main__
Node
p160
(dp161
g2
Nsg9
Nsg10
I1
sg11
I11
sg12
Nsg13
Nsbsg9
Nsg10
Nsg11
I10
sg12
S'94'
p162
sg13
(i__main__
Node
p163
(dp164
g2
(i__main__
Node
p165
(dp166
g2
(i__main__
Node
p167
(dp168
g2
Nsg9
Nsg10
I1
sg11
I13
sg12
Nsg13
Nsbsg9
Nsg10
Nsg11
I12
sg12
S'variabl'
p169
sg13
(i__main__
Node
p170
(dp171
g2
(i__main__
Node
p172
(dp173
g2
Nsg9
Nsg10
I1
sg11
I14
sg12
Nsg13
Nsbsg9
Nsg10
Nsg11
I13
sg12
S'68'
p174
sg13
(i__main__
Node
p175
(dp176
g2
(i__main__
Node
p177
(dp178
g2
Nsg9
Nsg10
I-1
sg11
I15
sg12
Nsg13
Nsbsg9
Nsg10
Nsg11
I14
sg12
g36
sg13
(i__main__
Node
p179
(dp180
g2
Nsg9
Nsg10
I-1
sg11
I15
sg12
Nsg13
Nsbsbsbsbsg9
Nsg10
Nsg11
I11
sg12
S'pm'
p181
sg13
(i__main__
Node
p182
(dp183
g2
(i__main__
Node
p184
(dp185
g2
Nsg9
Nsg10
I1
sg11
I13
sg12
Nsg13
Nsbsg9
Nsg10
Nsg11
I12
sg12
S'west'
p186
sg13
(i__main__
Node
p187
(dp188
g2
(i__main__
Node
p189
(dp190
g2
Nsg9
Nsg10
I-1
sg11
I14
sg12
Nsg13
Nsbsg9
Nsg10
Nsg11
I13
sg12
S'4mph'
p191
sg13
(i__main__
Node
p192
(dp193
g2
(i__main__
Node
p194
(dp195
g2
Nsg9
Nsg10
I-1
sg11
I15
sg12
Nsg13
Nsbsg9
Nsg10
Nsg11
I14
sg12
S'47'
p196
sg13
(i__main__
Node
p197
(dp198
g2
Nsg9
Nsg10
I1
sg11
I15
sg12
Nsg13
Nsbsbsbsbsbsbsbsbsbsbsbsbsbsg9
Nsg10
Nsg11
I2
sg12
S'wind'
p199
sg13
(i__main__
Node
p200
(dp201
g2
(i__main__
Node
p202
(dp203
g2
Nsg9
Nsg10
I-1
sg11
I4
sg12
Nsg13
Nsbsg9
Nsg10
Nsg11
I3
sg12
S'cloud'
p204
sg13
(i__main__
Node
p205
(dp206
g2
(i__main__
Node
p207
(dp208
g2
(i__main__
Node
p209
(dp210
g2
Nsg9
Nsg10
I1
sg11
I6
sg12
Nsg13
Nsbsg9
Nsg10
Nsg11
I5
sg12
S'53f'
p211
sg13
(i__main__
Node
p212
(dp213
g2
(i__main__
Node
p214
(dp215
g2
Nsg9
Nsg10
I1
sg11
I7
sg12
Nsg13
Nsbsg9
Nsg10
Nsg11
I6
sg12
S'21'
p216
sg13
(i__main__
Node
p217
(dp218
g2
(i__main__
Node
p219
(dp220
g2
Nsg9
Nsg10
I1
sg11
I8
sg12
Nsg13
Nsbsg9
Nsg10
Nsg11
I7
sg12
S'65f'
p221
sg13
(i__main__
Node
p222
(dp223
g2
Nsg9
Nsg10
I-1
sg11
I8
sg12
Nsg13
Nsbsbsbsbsg9
Nsg10
Nsg11
I4
sg12
g89
sg13
(i__main__
Node
p224
(dp225
g2
(i__main__
Node
p226
(dp227
g2
(i__main__
Node
p228
(dp229
g2
Nsg9
Nsg10
I1
sg11
I7
sg12
Nsg13
Nsbsg9
Nsg10
Nsg11
I6
sg12
S'busi'
p230
sg13
(i__main__
Node
p231
(dp232
g2
(i__main__
Node
p233
(dp234
g2
Nsg9
Nsg10
I1
sg11
I8
sg12
Nsg13
Nsbsg9
Nsg10
Nsg11
I7
sg12
S'degre'
p235
sg13
(i__main__
Node
p236
(dp237
g2
Nsg9
Nsg10
I-1
sg11
I8
sg12
Nsg13
Nsbsbsbsg9
Nsg10
Nsg11
I5
sg12
S'sunni'
p238
sg13
(i__main__
Node
p239
(dp240
g2
(i__main__
Node
p241
(dp242
g2
Nsg9
Nsg10
I-1
sg11
I7
sg12
Nsg13
Nsbsg9
Nsg10
Nsg11
I6
sg12
S'fair'
p243
sg13
(i__main__
Node
p244
(dp245
g2
(i__main__
Node
p246
(dp247
g2
Nsg9
Nsg10
I-1
sg11
I8
sg12
Nsg13
Nsbsg9
Nsg10
Nsg11
I7
sg12
S'sat'
p248
sg13
(i__main__
Node
p249
(dp250
g2
(i__main__
Node
p251
(dp252
g2
Nsg9
Nsg10
I-1
sg11
I9
sg12
Nsg13
Nsbsg9
Nsg10
Nsg11
I8
sg12
S'less'
p253
sg13
(i__main__
Node
p254
(dp255
g2
(i__main__
Node
p256
(dp257
g2
Nsg9
Nsg10
I-1
sg11
I10
sg12
Nsg13
Nsbsg9
Nsg10
Nsg11
I9
sg12
S'enjoy'
p258
sg13
(i__main__
Node
p259
(dp260
g2
(i__main__
Node
p261
(dp262
g2
Nsg9
Nsg10
I1
sg11
I11
sg12
Nsg13
Nsbsg9
Nsg10
Nsg11
I10
sg12
S'i'
p263
sg13
(i__main__
Node
p264
(dp265
g2
(i__main__
Node
p266
(dp267
g2
Nsg9
Nsg10
I-1
sg11
I12
sg12
Nsg13
Nsbsg9
Nsg10
Nsg11
I11
sg12
S'haha'
p268
sg13
(i__main__
Node
p269
(dp270
g2
(i__main__
Node
p271
(dp272
g2
(i__main__
Node
p273
(dp274
g2
Nsg9
Nsg10
I1
sg11
I14
sg12
Nsg13
Nsbsg9
Nsg10
Nsg11
I13
sg12
S'my'
p275
sg13
(i__main__
Node
p276
(dp277
g2
(i__main__
Node
p278
(dp279
g2
Nsg9
Nsg10
I1
sg11
I15
sg12
Nsg13
Nsbsg9
Nsg10
Nsg11
I14
sg12
S'100'
p280
sg13
(i__main__
Node
p281
(dp282
g2
Nsg9
Nsg10
I-1
sg11
I15
sg12
Nsg13
Nsbsbsbsg9
Nsg10
Nsg11
I12
sg12
S'rain'
p283
sg13
(i__main__
Node
p284
(dp285
g2
(i__main__
Node
p286
(dp287
g2
Nsg9
Nsg10
I-1
sg11
I14
sg12
Nsg13
Nsbsg9
Nsg10
Nsg11
I13
sg12
S'digit'
p288
sg13
(i__main__
Node
p289
(dp290
g2
(i__main__
Node
p291
(dp292
g2
Nsg9
Nsg10
I-1
sg11
I15
sg12
Nsg13
Nsbsg9
Nsg10
Nsg11
I14
sg12
S'sad'
p293
sg13
(i__main__
Node
p294
(dp295
g2
Nsg9
Nsg10
I1
sg11
I15
sg12
Nsg13
Nsbsbsbsbsbsbsbsbsbsbsbsbsbsbsg9
Nsg10
Nsg11
I1
sg12
S'humid'
p296
sg13
(i__main__
Node
p297
(dp298
g2
(i__main__
Node
p299
(dp300
g2
(i__main__
Node
p301
(dp302
g2
Nsg9
Nsg10
I-1
sg11
I4
sg12
Nsg13
Nsbsg9
Nsg10
Nsg11
I3
sg12
S'baro'
p303
sg13
(i__main__
Node
p304
(dp305
g2
(i__main__
Node
p306
(dp307
g2
Nsg9
Nsg10
I1
sg11
I5
sg12
Nsg13
Nsbsg9
Nsg10
Nsg11
I4
sg12
g30
sg13
(i__main__
Node
p308
(dp309
g2
(i__main__
Node
p310
(dp311
g2
Nsg9
Nsg10
I1
sg11
I6
sg12
Nsg13
Nsbsg9
Nsg10
Nsg11
I5
sg12
S'99'
p312
sg13
(i__main__
Node
p313
(dp314
g2
(i__main__
Node
p315
(dp316
g2
Nsg9
Nsg10
I1
sg11
I7
sg12
Nsg13
Nsbsg9
Nsg10
Nsg11
I6
sg12
S'4f'
p317
sg13
(i__main__
Node
p318
(dp319
g2
(i__main__
Node
p320
(dp321
g2
Nsg9
Nsg10
I1
sg11
I8
sg12
Nsg13
Nsbsg9
Nsg10
Nsg11
I7
sg12
g108
sg13
(i__main__
Node
p322
(dp323
g2
Nsg9
Nsg10
I-1
sg11
I8
sg12
Nsg13
Nsbsbsbsbsbsbsg9
Nsg10
Nsg11
I2
sg12
S'hum'
p324
sg13
(i__main__
Node
p325
(dp326
g2
(i__main__
Node
p327
(dp328
g2
(i__main__
Node
p329
(dp330
g2
Nsg9
Nsg10
I1
sg11
I5
sg12
Nsg13
Nsbsg9
Nsg10
Nsg11
I4
sg12
g23
sg13
(i__main__
Node
p331
(dp332
g2
(i__main__
Node
p333
(dp334
g2
Nsg9
Nsg10
I1
sg11
I6
sg12
Nsg13
Nsbsg9
Nsg10
Nsg11
I5
sg12
S'ass'
p335
sg13
(i__main__
Node
p336
(dp337
g2
Nsg9
Nsg10
I-1
sg11
I6
sg12
Nsg13
Nsbsbsbsg9
Nsg10
Nsg11
I3
sg12
S'sticki'
p338
sg13
(i__main__
Node
p339
(dp340
g2
(i__main__
Node
p341
(dp342
g2
(i__main__
Node
p343
(dp344
g2
Nsg9
Nsg10
I1
sg11
I6
sg12
Nsg13
Nsbsg9
Nsg10
Nsg11
I5
sg12
S'rt'
p345
sg13
(i__main__
Node
p346
(dp347
g2
Nsg9
Nsg10
I-1
sg11
I6
sg12
Nsg13
Nsbsbsg9
Nsg10
Nsg11
I4
sg12
S'maximum'
p348
sg13
(i__main__
Node
p349
(dp350
g2
(i__main__
Node
p351
(dp352
g2
(i__main__
Node
p353
(dp354
g2
Nsg9
Nsg10
I1
sg11
I7
sg12
Nsg13
Nsbsg9
Nsg10
Nsg11
I6
sg12
S'hockey'
p355
sg13
(i__main__
Node
p356
(dp357
g2
Nsg9
Nsg10
I-1
sg11
I7
sg12
Nsg13
Nsbsbsg9
Nsg10
Nsg11
I5
sg12
S'border'
p358
sg13
(i__main__
Node
p359
(dp360
g2
Nsg9
Nsg10
I-1
sg11
I6
sg12
Nsg13
Nsbsbsbsbsbsb.