(i__main__
Node
p0
(dp1
S'right'
p2
(i__main__
Node
p3
(dp4
g2
(i__main__
Node
p5
(dp6
g2
NsS'parser'
p7
NsS'label'
p8
I-1
sS'depth'
p9
I3
sS'criterion'
p10
NsS'left'
p11
Nsbsg7
Nsg8
Nsg9
I2
sg10
S'entir'
p12
sg11
(i__main__
Node
p13
(dp14
g2
(i__main__
Node
p15
(dp16
g2
(i__main__
Node
p17
(dp18
g2
Nsg7
Nsg8
I1
sg9
I5
sg10
Nsg11
Nsbsg7
Nsg8
Nsg9
I4
sg10
S'm'
p19
sg11
(i__main__
Node
p20
(dp21
g2
(i__main__
Node
p22
(dp23
g2
Nsg7
Nsg8
I1
sg9
I6
sg10
Nsg11
Nsbsg7
Nsg8
Nsg9
I5
sg10
S'recent'
p24
sg11
(i__main__
Node
p25
(dp26
g2
Nsg7
Nsg8
I-1
sg9
I6
sg10
Nsg11
Nsbsbsbsg7
Nsg8
Nsg9
I3
sg10
S'final'
p27
sg11
(i__main__
Node
p28
(dp29
g2
(i__main__
Node
p30
(dp31
g2
(i__main__
Node
p32
(dp33
g2
Nsg7
Nsg8
I1
sg9
I6
sg10
Nsg11
Nsbsg7
Nsg8
Nsg9
I5
sg10
S'music'
p34
sg11
(i__main__
Node
p35
(dp36
g2
Nsg7
Nsg8
I-1
sg9
I6
sg10
Nsg11
Nsbsbsg7
Nsg8
Nsg9
I4
sg10
S'b'
p37
sg11
(i__main__
Node
p38
(dp39
g2
(i__main__
Node
p40
(dp41
g2
(i__main__
Node
p42
(dp43
g2
Nsg7
Nsg8
I-1
sg9
I7
sg10
Nsg11
Nsbsg7
Nsg8
Nsg9
I6
sg10
S'hot'
p44
sg11
(i__main__
Node
p45
(dp46
g2
(i__main__
Node
p47
(dp48
g2
Nsg7
Nsg8
I-1
sg9
I8
sg10
Nsg11
Nsbsg7
Nsg8
Nsg9
I7
sg10
S'so'
p49
sg11
(i__main__
Node
p50
(dp51
g2
Nsg7
Nsg8
I1
sg9
I8
sg10
Nsg11
Nsbsbsbsg7
Nsg8
Nsg9
I5
sg10
S'last'
p52
sg11
(i__main__
Node
p53
(dp54
g2
(i__main__
Node
p55
(dp56
g2
(i__main__
Node
p57
(dp58
g2
(i__main__
Node
p59
(dp60
g2
Nsg7
Nsg8
I1
sg9
I9
sg10
Nsg11
Nsbsg7
Nsg8
Nsg9
I8
sg10
S'smirk'
p61
sg11
(i__main__
Node
p62
(dp63
g2
Nsg7
Nsg8
I-1
sg9
I9
sg10
Nsg11
Nsbsbsg7
Nsg8
Nsg9
I7
sg10
S'all'
p64
sg11
(i__main__
Node
p65
(dp66
g2
(i__main__
Node
p67
(dp68
g2
Nsg7
Nsg8
I-1
sg9
I9
sg10
Nsg11
Nsbsg7
Nsg8
Nsg9
I8
sg10
S'than'
p69
sg11
(i__main__
Node
p70
(dp71
g2
Nsg7
Nsg8
I1
sg9
I9
sg10
Nsg11
Nsbsbsbsg7
Nsg8
Nsg9
I6
sg10
g19
sg11
(i__main__
Node
p72
(dp73
g2
(i__main__
Node
p74
(dp75
g2
Nsg7
Nsg8
I-1
sg9
I8
sg10
Nsg11
Nsbsg7
Nsg8
Nsg9
I7
sg10
S'o'
p76
sg11
(i__main__
Node
p77
(dp78
g2
(i__main__
Node
p79
(dp80
g2
Nsg7
Nsg8
I-1
sg9
I9
sg10
Nsg11
Nsbsg7
Nsg8
Nsg9
I8
sg10
S'break'
p81
sg11
(i__main__
Node
p82
(dp83
g2
(i__main__
Node
p84
(dp85
g2
Nsg7
Nsg8
I-1
sg9
I10
sg10
Nsg11
Nsbsg7
Nsg8
Nsg9
I9
sg10
S'thunderstorm'
p86
sg11
(i__main__
Node
p87
(dp88
g2
(i__main__
Node
p89
(dp90
g2
(i__main__
Node
p91
(dp92
g2
Nsg7
Nsg8
I1
sg9
I12
sg10
Nsg11
Nsbsg7
Nsg8
Nsg9
I11
sg10
S'had'
p93
sg11
(i__main__
Node
p94
(dp95
g2
Nsg7
Nsg8
I-1
sg9
I12
sg10
Nsg11
Nsbsbsg7
Nsg8
Nsg9
I10
sg10
S'warmer'
p96
sg11
(i__main__
Node
p97
(dp98
g2
(i__main__
Node
p99
(dp100
g2
(i__main__
Node
p101
(dp102
g2
Nsg7
Nsg8
I1
sg9
I13
sg10
Nsg11
Nsbsg7
Nsg8
Nsg9
I12
sg10
S'here'
p103
sg11
(i__main__
Node
p104
(dp105
g2
Nsg7
Nsg8
I-1
sg9
I13
sg10
Nsg11
Nsbsbsg7
Nsg8
Nsg9
I11
sg10
S'graduat'
p106
sg11
(i__main__
Node
p107
(dp108
g2
(i__main__
Node
p109
(dp110
g2
(i__main__
Node
p111
(dp112
g2
Nsg7
Nsg8
I-1
sg9
I14
sg10
Nsg11
Nsbsg7
Nsg8
Nsg9
I13
sg10
S'good'
p113
sg11
(i__main__
Node
p114
(dp115
g2
Nsg7
Nsg8
I1
sg9
I14
sg10
Nsg11
Nsbsbsg7
Nsg8
Nsg9
I12
sg10
S'thing'
p116
sg11
(i__main__
Node
p117
(dp118
g2
Nsg7
Nsg8
I1
sg9
I13
sg10
Nsg11
Nsbsbsbsbsbsbsbsbsbsbsbsbsg7
Nsg8
Nsg9
I1
sg10
S'raini'
p119
sg11
(i__main__
Node
p120
(dp121
g2
(i__main__
Node
p122
(dp123
g2
(i__main__
Node
p124
(dp125
g2
(i__main__
Node
p126
(dp127
g2
Nsg7
Nsg8
I1
sg9
I5
sg10
Nsg11
Nsbsg7
Nsg8
Nsg9
I4
sg10
S'shower'
p128
sg11
(i__main__
Node
p129
(dp130
g2
(i__main__
Node
p131
(dp132
g2
Nsg7
Nsg8
I1
sg9
I6
sg10
Nsg11
Nsbsg7
Nsg8
Nsg9
I5
sg10
S'co'
p133
sg11
(i__main__
Node
p134
(dp135
g2
(i__main__
Node
p136
(dp137
g2
(i__main__
Node
p138
(dp139
g2
Nsg7
Nsg8
I1
sg9
I8
sg10
Nsg11
Nsbsg7
Nsg8
Nsg9
I7
sg10
S'34'
p140
sg11
(i__main__
Node
p141
(dp142
g2
Nsg7
Nsg8
I-1
sg9
I8
sg10
Nsg11
Nsbsbsg7
Nsg8
Nsg9
I6
sg10
S'fair'
p143
sg11
(i__main__
Node
p144
(dp145
g2
Nsg7
Nsg8
I-1
sg9
I7
sg10
Nsg11
Nsbsbsbsbsg7
Nsg8
Nsg9
I3
sg10
S'0'
p146
sg11
(i__main__
Node
p147
(dp148
g2
(i__main__
Node
p149
(dp150
g2
(i__main__
Node
p151
(dp152
g2
Nsg7
Nsg8
I-1
sg9
I6
sg10
Nsg11
Nsbsg7
Nsg8
Nsg9
I5
sg10
S'like'
p153
sg11
(i__main__
Node
p154
(dp155
g2
(i__main__
Node
p156
(dp157
g2
Nsg7
Nsg8
I-1
sg9
I7
sg10
Nsg11
Nsbsg7
Nsg8
Nsg9
I6
sg10
S'it'
p158
sg11
(i__main__
Node
p159
(dp160
g2
(i__main__
Node
p161
(dp162
g2
Nsg7
Nsg8
I-1
sg9
I8
sg10
Nsg11
Nsbsg7
Nsg8
Nsg9
I7
sg10
S'd'
p163
sg11
(i__main__
Node
p164
(dp165
g2
(i__main__
Node
p166
(dp167
g2
Nsg7
Nsg8
I-1
sg9
I9
sg10
Nsg11
Nsbsg7
Nsg8
Nsg9
I8
sg10
S'up'
p168
sg11
(i__main__
Node
p169
(dp170
g2
(i__main__
Node
p171
(dp172
g2
Nsg7
Nsg8
I-1
sg9
I10
sg10
Nsg11
Nsbsg7
Nsg8
Nsg9
I9
sg10
S'lightn'
p173
sg11
(i__main__
Node
p174
(dp175
g2
(i__main__
Node
p176
(dp177
g2
Nsg7
Nsg8
I-1
sg9
I11
sg10
Nsg11
Nsbsg7
Nsg8
Nsg9
I10
sg10
S'memstorm'
p178
sg11
(i__main__
Node
p179
(dp180
g2
(i__main__
Node
p181
(dp182
g2
Nsg7
Nsg8
I-1
sg9
I12
sg10
Nsg11
Nsbsg7
Nsg8
Nsg9
I11
sg10
S'wine'
p183
sg11
(i__main__
Node
p184
(dp185
g2
(i__main__
Node
p186
(dp187
g2
Nsg7
Nsg8
I-1
sg9
I13
sg10
Nsg11
Nsbsg7
Nsg8
Nsg9
I12
sg10
S'later'
p188
sg11
(i__main__
Node
p189
(dp190
g2
(i__main__
Node
p191
(dp192
g2
Nsg7
Nsg8
I-1
sg9
I14
sg10
Nsg11
Nsbsg7
Nsg8
Nsg9
I13
sg10
S'flood'
p193
sg11
(i__main__
Node
p194
(dp195
g2
(i__main__
Node
p196
(dp197
g2
Nsg7
Nsg8
I-1
sg9
I15
sg10
Nsg11
Nsbsg7
Nsg8
Nsg9
I14
sg10
S'her'
p198
sg11
(i__main__
Node
p199
(dp200
g2
Nsg7
Nsg8
I1
sg9
I15
sg10
Nsg11
Nsbsbsbsbsbsbsbsbsbsbsbsg7
Nsg8
Nsg9
I4
sg10
S't'
p201
sg11
(i__main__
Node
p202
(dp203
g2
(i__main__
Node
p204
(dp205
g2
Nsg7
Nsg8
I-1
sg9
I6
sg10
Nsg11
Nsbsg7
Nsg8
Nsg9
I5
sg10
S'everyon'
p206
sg11
(i__main__
Node
p207
(dp208
g2
(i__main__
Node
p209
(dp210
g2
Nsg7
Nsg8
I1
sg9
I7
sg10
Nsg11
Nsbsg7
Nsg8
Nsg9
I6
sg10
S'have'
p211
sg11
(i__main__
Node
p212
(dp213
g2
(i__main__
Node
p214
(dp215
g2
(i__main__
Node
p216
(dp217
g2
Nsg7
Nsg8
I-1
sg9
I9
sg10
Nsg11
Nsbsg7
Nsg8
Nsg9
I8
sg10
S'take'
p218
sg11
(i__main__
Node
p219
(dp220
g2
(i__main__
Node
p221
(dp222
g2
(i__main__
Node
p223
(dp224
g2
Nsg7
Nsg8
I1
sg9
I11
sg10
Nsg11
Nsbsg7
Nsg8
Nsg9
I10
sg10
S'1am'
p225
sg11
(i__main__
Node
p226
(dp227
g2
Nsg7
Nsg8
I-1
sg9
I11
sg10
Nsg11
Nsbsbsg7
Nsg8
Nsg9
I9
sg10
S'suppos'
p228
sg11
(i__main__
Node
p229
(dp230
g2
(i__main__
Node
p231
(dp232
g2
(i__main__
Node
p233
(dp234
g2
Nsg7
Nsg8
I-1
sg9
I12
sg10
Nsg11
Nsbsg7
Nsg8
Nsg9
I11
sg10
S'gonna'
p235
sg11
(i__main__
Node
p236
(dp237
g2
(i__main__
Node
p238
(dp239
g2
Nsg7
Nsg8
I-1
sg9
I13
sg10
Nsg11
Nsbsg7
Nsg8
Nsg9
I12
sg10
S'come'
p240
sg11
(i__main__
Node
p241
(dp242
g2
(i__main__
Node
p243
(dp244
g2
Nsg7
Nsg8
I-1
sg9
I14
sg10
Nsg11
Nsbsg7
Nsg8
Nsg9
I13
sg10
g188
sg11
(i__main__
Node
p245
(dp246
g2
Nsg7
Nsg8
I1
sg9
I14
sg10
Nsg11
Nsbsbsbsbsg7
Nsg8
Nsg9
I10
sg10
S'mention'
p247
sg11
(i__main__
Node
p248
(dp249
g2
(i__main__
Node
p250
(dp251
g2
Nsg7
Nsg8
I-1
sg9
I12
sg10
Nsg11
Nsbsg7
Nsg8
Nsg9
I11
sg10
S'drought'
p252
sg11
(i__main__
Node
p253
(dp254
g2
Nsg7
Nsg8
I1
sg9
I12
sg10
Nsg11
Nsbsbsbsbsbsg7
Nsg8
Nsg9
I7
sg10
S's'
p255
sg11
(i__main__
Node
p256
(dp257
g2
(i__main__
Node
p258
(dp259
g2
(i__main__
Node
p260
(dp261
g2
Nsg7
Nsg8
I1
sg9
I10
sg10
Nsg11
Nsbsg7
Nsg8
Nsg9
I9
sg10
S'6'
p262
sg11
(i__main__
Node
p263
(dp264
g2
Nsg7
Nsg8
I-1
sg9
I10
sg10
Nsg11
Nsbsbsg7
Nsg8
Nsg9
I8
sg10
S'clear'
p265
sg11
(i__main__
Node
p266
(dp267
g2
(i__main__
Node
p268
(dp269
g2
(i__main__
Node
p270
(dp271
g2
Nsg7
Nsg8
I1
sg9
I11
sg10
Nsg11
Nsbsg7
Nsg8
Nsg9
I10
sg10
S'move'
p272
sg11
(i__main__
Node
p273
(dp274
g2
Nsg7
Nsg8
I-1
sg9
I11
sg10
Nsg11
Nsbsbsg7
Nsg8
Nsg9
I9
sg10
S'dri'
p275
sg11
(i__main__
Node
p276
(dp277
g2
(i__main__
Node
p278
(dp279
g2
Nsg7
Nsg8
I-1
sg9
I11
sg10
Nsg11
Nsbsg7
Nsg8
Nsg9
I10
sg10
S'vicin'
p280
sg11
(i__main__
Node
p281
(dp282
g2
(i__main__
Node
p283
(dp284
g2
Nsg7
Nsg8
I-1
sg9
I12
sg10
Nsg11
Nsbsg7
Nsg8
Nsg9
I11
sg10
S'old'
p285
sg11
(i__main__
Node
p286
(dp287
g2
(i__main__
Node
p288
(dp289
g2
Nsg7
Nsg8
I-1
sg9
I13
sg10
Nsg11
Nsbsg7
Nsg8
Nsg9
I12
sg10
S'winter'
p290
sg11
(i__main__
Node
p291
(dp292
g2
(i__main__
Node
p293
(dp294
g2
Nsg7
Nsg8
I-1
sg9
I14
sg10
Nsg11
Nsbsg7
Nsg8
Nsg9
I13
sg10
S'nation'
p295
sg11
(i__main__
Node
p296
(dp297
g2
(i__main__
Node
p298
(dp299
g2
Nsg7
Nsg8
I-1
sg9
I15
sg10
Nsg11
Nsbsg7
Nsg8
Nsg9
I14
sg10
S'beach'
p300
sg11
(i__main__
Node
p301
(dp302
g2
Nsg7
Nsg8
I1
sg9
I15
sg10
Nsg11
Nsbsbsbsbsbsbsbsbsbsbsbsbsbsg7
Nsg8
Nsg9
I2
sg10
S'rain'
p303
sg11
(i__main__
Node
p304
(dp305
g2
(i__main__
Node
p306
(dp307
g2
(i__main__
Node
p308
(dp309
g2
(i__main__
Node
p310
(dp311
g2
Nsg7
Nsg8
I1
sg9
I6
sg10
Nsg11
Nsbsg7
Nsg8
Nsg9
I5
sg10
S'tonight'
p312
sg11
(i__main__
Node
p313
(dp314
g2
Nsg7
Nsg8
I-1
sg9
I6
sg10
Nsg11
Nsbsbsg7
Nsg8
Nsg9
I4
sg10
S'i'
p315
sg11
(i__main__
Node
p316
(dp317
g2
(i__main__
Node
p318
(dp319
g2
Nsg7
Nsg8
I1
sg9
I6
sg10
Nsg11
Nsbsg7
Nsg8
Nsg9
I5
sg10
S'possibl'
p320
sg11
(i__main__
Node
p321
(dp322
g2
(i__main__
Node
p323
(dp324
g2
(i__main__
Node
p325
(dp326
g2
Nsg7
Nsg8
I-1
sg9
I8
sg10
Nsg11
Nsbsg7
Nsg8
Nsg9
I7
sg10
S'may'
p327
sg11
(i__main__
Node
p328
(dp329
g2
(i__main__
Node
p330
(dp331
g2
Nsg7
Nsg8
I-1
sg9
I9
sg10
Nsg11
Nsbsg7
Nsg8
Nsg9
I8
sg10
S'w'
p332
sg11
(i__main__
Node
p333
(dp334
g2
Nsg7
Nsg8
I1
sg9
I9
sg10
Nsg11
Nsbsbsbsg7
Nsg8
Nsg9
I6
sg10
S'slight'
p335
sg11
(i__main__
Node
p336
(dp337
g2
(i__main__
Node
p338
(dp339
g2
Nsg7
Nsg8
I1
sg9
I8
sg10
Nsg11
Nsbsg7
Nsg8
Nsg9
I7
sg10
S'fri'
p340
sg11
(i__main__
Node
p341
(dp342
g2
(i__main__
Node
p343
(dp344
g2
Nsg7
Nsg8
I1
sg9
I9
sg10
Nsg11
Nsbsg7
Nsg8
Nsg9
I8
sg10
S'bring'
p345
sg11
(i__main__
Node
p346
(dp347
g2
(i__main__
Node
p348
(dp349
g2
Nsg7
Nsg8
I1
sg9
I10
sg10
Nsg11
Nsbsg7
Nsg8
Nsg9
I9
sg10
S'monday'
p350
sg11
(i__main__
Node
p351
(dp352
g2
(i__main__
Node
p353
(dp354
g2
Nsg7
Nsg8
I1
sg9
I11
sg10
Nsg11
Nsbsg7
Nsg8
Nsg9
I10
sg10
S'still'
p355
sg11
(i__main__
Node
p356
(dp357
g2
(i__main__
Node
p358
(dp359
g2
Nsg7
Nsg8
I1
sg9
I12
sg10
Nsg11
Nsbsg7
Nsg8
Nsg9
I11
sg10
S'washout'
p360
sg11
(i__main__
Node
p361
(dp362
g2
(i__main__
Node
p363
(dp364
g2
Nsg7
Nsg8
I1
sg9
I13
sg10
Nsg11
Nsbsg7
Nsg8
Nsg9
I12
sg10
S'mo'
p365
sg11
(i__main__
Node
p366
(dp367
g2
(i__main__
Node
p368
(dp369
g2
Nsg7
Nsg8
I1
sg9
I14
sg10
Nsg11
Nsbsg7
Nsg8
Nsg9
I13
sg10
S'beauti'
p370
sg11
(i__main__
Node
p371
(dp372
g2
(i__main__
Node
p373
(dp374
g2
Nsg7
Nsg8
I1
sg9
I15
sg10
Nsg11
Nsbsg7
Nsg8
Nsg9
I14
sg10
S'occasion'
p375
sg11
(i__main__
Node
p376
(dp377
g2
Nsg7
Nsg8
I-1
sg9
I15
sg10
Nsg11
Nsbsbsbsbsbsbsbsbsbsbsbsbsg7
Nsg8
Nsg9
I3
sg10
g128
sg11
(i__main__
Node
p378
(dp379
g2
(i__main__
Node
p380
(dp381
g2
(i__main__
Node
p382
(dp383
g2
Nsg7
Nsg8
I1
sg9
I6
sg10
Nsg11
Nsbsg7
Nsg8
Nsg9
I5
sg10
S'your'
p384
sg11
(i__main__
Node
p385
(dp386
g2
(i__main__
Node
p387
(dp388
g2
(i__main__
Node
p389
(dp390
g2
Nsg7
Nsg8
I-1
sg9
I8
sg10
Nsg11
Nsbsg7
Nsg8
Nsg9
I7
sg10
S'help'
p391
sg11
(i__main__
Node
p392
(dp393
g2
Nsg7
Nsg8
I1
sg9
I8
sg10
Nsg11
Nsbsbsg7
Nsg8
Nsg9
I6
sg10
S'my'
p394
sg11
(i__main__
Node
p395
(dp396
g2
(i__main__
Node
p397
(dp398
g2
(i__main__
Node
p399
(dp400
g2
Nsg7
Nsg8
I-1
sg9
I9
sg10
Nsg11
Nsbsg7
Nsg8
Nsg9
I8
sg10
S'wind'
p401
sg11
(i__main__
Node
p402
(dp403
g2
Nsg7
Nsg8
I1
sg9
I9
sg10
Nsg11
Nsbsbsg7
Nsg8
Nsg9
I7
sg10
S'day'
p404
sg11
(i__main__
Node
p405
(dp406
g2
(i__main__
Node
p407
(dp408
g2
Nsg7
Nsg8
I1
sg9
I9
sg10
Nsg11
Nsbsg7
Nsg8
Nsg9
I8
sg10
S'__'
p409
sg11
(i__main__
Node
p410
(dp411
g2
(i__main__
Node
p412
(dp413
g2
Nsg7
Nsg8
I1
sg9
I10
sg10
Nsg11
Nsbsg7
Nsg8
Nsg9
I9
sg10
S'unsold'
p414
sg11
(i__main__
Node
p415
(dp416
g2
(i__main__
Node
p417
(dp418
g2
Nsg7
Nsg8
I1
sg9
I11
sg10
Nsg11
Nsbsg7
Nsg8
Nsg9
I10
sg10
S'open'
p419
sg11
(i__main__
Node
p420
(dp421
g2
Nsg7
Nsg8
I-1
sg9
I11
sg10
Nsg11
Nsbsbsbsbsbsbsbsg7
Nsg8
Nsg9
I4
sg10
S'wet'
p422
sg11
(i__main__
Node
p423
(dp424
g2
(i__main__
Node
p425
(dp426
g2
(i__main__
Node
p427
(dp428
g2
Nsg7
Nsg8
I-1
sg9
I7
sg10
Nsg11
Nsbsg7
Nsg8
Nsg9
I6
sg10
g247
sg11
(i__main__
Node
p429
(dp430
g2
(i__main__
Node
p431
(dp432
g2
Nsg7
Nsg8
I-1
sg9
I8
sg10
Nsg11
Nsbsg7
Nsg8
Nsg9
I7
sg10
S'thunder'
p433
sg11
(i__main__
Node
p434
(dp435
g2
(i__main__
Node
p436
(dp437
g2
Nsg7
Nsg8
I-1
sg9
I9
sg10
Nsg11
Nsbsg7
Nsg8
Nsg9
I8
sg10
S'perfect'
p438
sg11
(i__main__
Node
p439
(dp440
g2
Nsg7
Nsg8
I1
sg9
I9
sg10
Nsg11
Nsbsbsbsbsg7
Nsg8
Nsg9
I5
sg10
S'pour'
p441
sg11
(i__main__
Node
p442
(dp443
g2
(i__main__
Node
p444
(dp445
g2
Nsg7
Nsg8
I1
sg9
I7
sg10
Nsg11
Nsbsg7
Nsg8
Nsg9
I6
sg10
S'sprinkl'
p446
sg11
(i__main__
Node
p447
(dp448
g2
(i__main__
Node
p449
(dp450
g2
Nsg7
Nsg8
I1
sg9
I8
sg10
Nsg11
Nsbsg7
Nsg8
Nsg9
I7
sg10
S'drizzli'
p451
sg11
(i__main__
Node
p452
(dp453
g2
(i__main__
Node
p454
(dp455
g2
Nsg7
Nsg8
I1
sg9
I9
sg10
Nsg11
Nsbsg7
Nsg8
Nsg9
I8
sg10
S'rainyday'
p456
sg11
(i__main__
Node
p457
(dp458
g2
(i__main__
Node
p459
(dp460
g2
Nsg7
Nsg8
I1
sg9
I10
sg10
Nsg11
Nsbsg7
Nsg8
Nsg9
I9
sg10
S'raininq'
p461
sg11
(i__main__
Node
p462
(dp463
g2
(i__main__
Node
p464
(dp465
g2
Nsg7
Nsg8
I1
sg9
I11
sg10
Nsg11
Nsbsg7
Nsg8
Nsg9
I10
sg10
S'precipit'
p466
sg11
(i__main__
Node
p467
(dp468
g2
(i__main__
Node
p469
(dp470
g2
Nsg7
Nsg8
I1
sg9
I12
sg10
Nsg11
Nsbsg7
Nsg8
Nsg9
I11
sg10
S'cryin'
p471
sg11
(i__main__
Node
p472
(dp473
g2
(i__main__
Node
p474
(dp475
g2
(i__main__
Node
p476
(dp477
g2
Nsg7
Nsg8
I1
sg9
I14
sg10
Nsg11
Nsbsg7
Nsg8
Nsg9
I13
sg10
S'raptur'
p478
sg11
(i__main__
Node
p479
(dp480
g2
(i__main__
Node
p481
(dp482
g2
Nsg7
Nsg8
I1
sg9
I15
sg10
Nsg11
Nsbsg7
Nsg8
Nsg9
I14
sg10
S'foggi'
p483
sg11
(i__main__
Node
p484
(dp485
g2
Nsg7
Nsg8
I-1
sg9
I15
sg10
Nsg11
Nsbsbsbsg7
Nsg8
Nsg9
I12
sg10
S'ran'
p486
sg11
(i__main__
Node
p487
(dp488
g2
(i__main__
Node
p489
(dp490
g2
Nsg7
Nsg8
I1
sg9
I14
sg10
Nsg11
Nsbsg7
Nsg8
Nsg9
I13
sg10
S'veneta'
p491
sg11
(i__main__
Node
p492
(dp493
g2
(i__main__
Node
p494
(dp495
g2
Nsg7
Nsg8
I1
sg9
I15
sg10
Nsg11
Nsbsg7
Nsg8
Nsg9
I14
sg10
S'verg'
p496
sg11
(i__main__
Node
p497
(dp498
g2
Nsg7
Nsg8
I-1
sg9
I15
sg10
Nsg11
Nsbsbsbsbsbsbsbsbsbsbsbsbsbsbsb.