(i__main__
Node
p0
(dp1
S'right'
p2
(i__main__
Node
p3
(dp4
g2
(i__main__
Node
p5
(dp6
g2
(i__main__
Node
p7
(dp8
g2
NsS'parser'
p9
NsS'label'
p10
I1
sS'depth'
p11
I4
sS'criterion'
p12
NsS'left'
p13
Nsbsg9
Nsg10
Nsg11
I3
sg12
S'tri'
p14
sg13
(i__main__
Node
p15
(dp16
g2
Nsg9
Nsg10
I-1
sg11
I4
sg12
Nsg13
Nsbsbsg9
Nsg10
Nsg11
I2
sg12
S'patrol'
p17
sg13
(i__main__
Node
p18
(dp19
g2
(i__main__
Node
p20
(dp21
g2
Nsg9
Nsg10
I-1
sg11
I4
sg12
Nsg13
Nsbsg9
Nsg10
Nsg11
I3
sg12
S'feel'
p22
sg13
(i__main__
Node
p23
(dp24
g2
(i__main__
Node
p25
(dp26
g2
(i__main__
Node
p27
(dp28
g2
Nsg9
Nsg10
I1
sg11
I6
sg12
Nsg13
Nsbsg9
Nsg10
Nsg11
I5
sg12
S'rt'
p29
sg13
(i__main__
Node
p30
(dp31
g2
(i__main__
Node
p32
(dp33
g2
Nsg9
Nsg10
I1
sg11
I7
sg12
Nsg13
Nsbsg9
Nsg10
Nsg11
I6
sg12
S'beach'
p34
sg13
(i__main__
Node
p35
(dp36
g2
Nsg9
Nsg10
I-1
sg11
I7
sg12
Nsg13
Nsbsbsbsg9
Nsg10
Nsg11
I4
sg12
S'cone'
p37
sg13
(i__main__
Node
p38
(dp39
g2
(i__main__
Node
p40
(dp41
g2
(i__main__
Node
p42
(dp43
g2
Nsg9
Nsg10
I1
sg11
I7
sg12
Nsg13
Nsbsg9
Nsg10
Nsg11
I6
sg12
S'littl'
p44
sg13
(i__main__
Node
p45
(dp46
g2
Nsg9
Nsg10
I-1
sg11
I7
sg12
Nsg13
Nsbsbsg9
Nsg10
Nsg11
I5
sg12
S'boot'
p47
sg13
(i__main__
Node
p48
(dp49
g2
(i__main__
Node
p50
(dp51
g2
(i__main__
Node
p52
(dp53
g2
Nsg9
Nsg10
I1
sg11
I8
sg12
Nsg13
Nsbsg9
Nsg10
Nsg11
I7
sg12
S'here'
p54
sg13
(i__main__
Node
p55
(dp56
g2
(i__main__
Node
p57
(dp58
g2
Nsg9
Nsg10
I1
sg11
I9
sg12
Nsg13
Nsbsg9
Nsg10
Nsg11
I8
sg12
S'smh'
p59
sg13
(i__main__
Node
p60
(dp61
g2
Nsg9
Nsg10
I-1
sg11
I9
sg12
Nsg13
Nsbsbsbsg9
Nsg10
Nsg11
I6
sg12
S'hail'
p62
sg13
(i__main__
Node
p63
(dp64
g2
(i__main__
Node
p65
(dp66
g2
(i__main__
Node
p67
(dp68
g2
Nsg9
Nsg10
I-1
sg11
I9
sg12
Nsg13
Nsbsg9
Nsg10
Nsg11
I8
sg12
S'day'
p69
sg13
(i__main__
Node
p70
(dp71
g2
(i__main__
Node
p72
(dp73
g2
Nsg9
Nsg10
I-1
sg11
I10
sg12
Nsg13
Nsbsg9
Nsg10
Nsg11
I9
sg12
S'valley'
p74
sg13
(i__main__
Node
p75
(dp76
g2
(i__main__
Node
p77
(dp78
g2
Nsg9
Nsg10
I-1
sg11
I11
sg12
Nsg13
Nsbsg9
Nsg10
Nsg11
I10
sg12
S'say'
p79
sg13
(i__main__
Node
p80
(dp81
g2
(i__main__
Node
p82
(dp83
g2
Nsg9
Nsg10
I-1
sg11
I12
sg12
Nsg13
Nsbsg9
Nsg10
Nsg11
I11
sg12
S'where'
p84
sg13
(i__main__
Node
p85
(dp86
g2
(i__main__
Node
p87
(dp88
g2
Nsg9
Nsg10
I-1
sg11
I13
sg12
Nsg13
Nsbsg9
Nsg10
Nsg11
I12
sg12
S'male'
p89
sg13
(i__main__
Node
p90
(dp91
g2
Nsg9
Nsg10
I1
sg11
I13
sg12
Nsg13
Nsbsbsbsbsbsbsg9
Nsg10
Nsg11
I7
sg12
S'ha'
p92
sg13
(i__main__
Node
p93
(dp94
g2
(i__main__
Node
p95
(dp96
g2
Nsg9
Nsg10
I-1
sg11
I9
sg12
Nsg13
Nsbsg9
Nsg10
Nsg11
I8
sg12
S'90'
p97
sg13
(i__main__
Node
p98
(dp99
g2
(i__main__
Node
p100
(dp101
g2
Nsg9
Nsg10
I-1
sg11
I10
sg12
Nsg13
Nsbsg9
Nsg10
Nsg11
I9
sg12
S'sunni'
p102
sg13
(i__main__
Node
p103
(dp104
g2
(i__main__
Node
p105
(dp106
g2
Nsg9
Nsg10
I-1
sg11
I11
sg12
Nsg13
Nsbsg9
Nsg10
Nsg11
I10
sg12
S'told'
p107
sg13
(i__main__
Node
p108
(dp109
g2
(i__main__
Node
p110
(dp111
g2
Nsg9
Nsg10
I-1
sg11
I12
sg12
Nsg13
Nsbsg9
Nsg10
Nsg11
I11
sg12
S'de'
p112
sg13
(i__main__
Node
p113
(dp114
g2
(i__main__
Node
p115
(dp116
g2
Nsg9
Nsg10
I-1
sg11
I13
sg12
Nsg13
Nsbsg9
Nsg10
Nsg11
I12
sg12
S'cat'
p117
sg13
(i__main__
Node
p118
(dp119
g2
(i__main__
Node
p120
(dp121
g2
Nsg9
Nsg10
I-1
sg11
I14
sg12
Nsg13
Nsbsg9
Nsg10
Nsg11
I13
sg12
S'kid'
p122
sg13
(i__main__
Node
p123
(dp124
g2
(i__main__
Node
p125
(dp126
g2
Nsg9
Nsg10
I-1
sg11
I15
sg12
Nsg13
Nsbsg9
Nsg10
Nsg11
I14
sg12
S'cloudi'
p127
sg13
(i__main__
Node
p128
(dp129
g2
Nsg9
Nsg10
I1
sg11
I15
sg12
Nsg13
Nsbsbsbsbsbsbsbsbsbsbsbsbsbsbsg9
Nsg10
Nsg11
I1
sg12
S'snow'
p130
sg13
(i__main__
Node
p131
(dp132
g2
(i__main__
Node
p133
(dp134
g2
(i__main__
Node
p135
(dp136
g2
Nsg9
Nsg10
I-1
sg11
I4
sg12
Nsg13
Nsbsg9
Nsg10
Nsg11
I3
sg12
S're'
p137
sg13
(i__main__
Node
p138
(dp139
g2
(i__main__
Node
p140
(dp141
g2
Nsg9
Nsg10
I-1
sg11
I5
sg12
Nsg13
Nsbsg9
Nsg10
Nsg11
I4
sg12
S'bu'
p142
sg13
(i__main__
Node
p143
(dp144
g2
Nsg9
Nsg10
I1
sg11
I5
sg12
Nsg13
Nsbsbsbsg9
Nsg10
Nsg11
I2
sg12
S'snowi'
p145
sg13
(i__main__
Node
p146
(dp147
g2
(i__main__
Node
p148
(dp149
g2
Nsg9
Nsg10
I1
sg11
I4
sg12
Nsg13
Nsbsg9
Nsg10
Nsg11
I3
sg12
S'snowstorm'
p150
sg13
(i__main__
Node
p151
(dp152
g2
(i__main__
Node
p153
(dp154
g2
(i__main__
Node
p155
(dp156
g2
Nsg9
Nsg10
I1
sg11
I6
sg12
Nsg13
Nsbsg9
Nsg10
Nsg11
I5
sg12
S'want'
p157
sg13
(i__main__
Node
p158
(dp159
g2
(i__main__
Node
p160
(dp161
g2
(i__main__
Node
p162
(dp163
g2
Nsg9
Nsg10
I1
sg11
I8
sg12
Nsg13
Nsbsg9
Nsg10
Nsg11
I7
sg12
S'ohh'
p164
sg13
(i__main__
Node
p165
(dp166
g2
(i__main__
Node
p167
(dp168
g2
Nsg9
Nsg10
I1
sg11
I9
sg12
Nsg13
Nsbsg9
Nsg10
Nsg11
I8
sg12
S'bring'
p169
sg13
(i__main__
Node
p170
(dp171
g2
(i__main__
Node
p172
(dp173
g2
Nsg9
Nsg10
I1
sg11
I10
sg12
Nsg13
Nsbsg9
Nsg10
Nsg11
I9
sg12
S'dont'
p174
sg13
(i__main__
Node
p175
(dp176
g2
Nsg9
Nsg10
I-1
sg11
I10
sg12
Nsg13
Nsbsbsbsbsg9
Nsg10
Nsg11
I6
sg12
S'mention'
p177
sg13
(i__main__
Node
p178
(dp179
g2
Nsg9
Nsg10
I-1
sg11
I7
sg12
Nsg13
Nsbsbsbsg9
Nsg10
Nsg11
I4
sg12
S'blizzard'
p180
sg13
(i__main__
Node
p181
(dp182
g2
(i__main__
Node
p183
(dp184
g2
(i__main__
Node
p185
(dp186
g2
Nsg9
Nsg10
I-1
sg11
I7
sg12
Nsg13
Nsbsg9
Nsg10
Nsg11
I6
sg12
S'rain'
p187
sg13
(i__main__
Node
p188
(dp189
g2
(i__main__
Node
p190
(dp191
g2
Nsg9
Nsg10
I-1
sg11
I8
sg12
Nsg13
Nsbsg9
Nsg10
Nsg11
I7
sg12
S'men'
p192
sg13
(i__main__
Node
p193
(dp194
g2
(i__main__
Node
p195
(dp196
g2
Nsg9
Nsg10
I-1
sg11
I9
sg12
Nsg13
Nsbsg9
Nsg10
Nsg11
I8
sg12
S'past'
p197
sg13
(i__main__
Node
p198
(dp199
g2
Nsg9
Nsg10
I1
sg11
I9
sg12
Nsg13
Nsbsbsbsbsg9
Nsg10
Nsg11
I5
sg12
S'inch'
p200
sg13
(i__main__
Node
p201
(dp202
g2
(i__main__
Node
p203
(dp204
g2
Nsg9
Nsg10
I1
sg11
I7
sg12
Nsg13
Nsbsg9
Nsg10
Nsg11
I6
sg12
S'pooper'
p205
sg13
(i__main__
Node
p206
(dp207
g2
(i__main__
Node
p208
(dp209
g2
Nsg9
Nsg10
I1
sg11
I8
sg12
Nsg13
Nsbsg9
Nsg10
Nsg11
I7
sg12
S'beliv'
p210
sg13
(i__main__
Node
p211
(dp212
g2
(i__main__
Node
p213
(dp214
g2
Nsg9
Nsg10
I1
sg11
I9
sg12
Nsg13
Nsbsg9
Nsg10
Nsg11
I8
sg12
S'yiu'
p215
sg13
(i__main__
Node
p216
(dp217
g2
(i__main__
Node
p218
(dp219
g2
(i__main__
Node
p220
(dp221
g2
Nsg9
Nsg10
I1
sg11
I11
sg12
Nsg13
Nsbsg9
Nsg10
Nsg11
I10
sg12
g14
sg13
(i__main__
Node
p222
(dp223
g2
Nsg9
Nsg10
I-1
sg11
I11
sg12
Nsg13
Nsbsbsg9
Nsg10
Nsg11
I9
sg12
S'spot'
p224
sg13
(i__main__
Node
p225
(dp226
g2
Nsg9
Nsg10
I-1
sg11
I10
sg12
Nsg13
Nsbsbsbsbsbsbsbsbsbsb.