(i__main__
Node
p0
(dp1
S'right'
p2
(i__main__
Node
p3
(dp4
g2
(i__main__
Node
p5
(dp6
g2
NsS'parser'
p7
NsS'label'
p8
I-1
sS'depth'
p9
I3
sS'criterion'
p10
NsS'left'
p11
Nsbsg7
Nsg8
Nsg9
I2
sg10
S's'
p12
sg11
(i__main__
Node
p13
(dp14
g2
(i__main__
Node
p15
(dp16
g2
Nsg7
Nsg8
I-1
sg9
I4
sg10
Nsg11
Nsbsg7
Nsg8
Nsg9
I3
sg10
S't'
p17
sg11
(i__main__
Node
p18
(dp19
g2
(i__main__
Node
p20
(dp21
g2
Nsg7
Nsg8
I-1
sg9
I5
sg10
Nsg11
Nsbsg7
Nsg8
Nsg9
I4
sg10
S'rt'
p22
sg11
(i__main__
Node
p23
(dp24
g2
(i__main__
Node
p25
(dp26
g2
Nsg7
Nsg8
I-1
sg9
I6
sg10
Nsg11
Nsbsg7
Nsg8
Nsg9
I5
sg10
S'air'
p27
sg11
(i__main__
Node
p28
(dp29
g2
(i__main__
Node
p30
(dp31
g2
Nsg7
Nsg8
I-1
sg9
I7
sg10
Nsg11
Nsbsg7
Nsg8
Nsg9
I6
sg10
S'some'
p32
sg11
(i__main__
Node
p33
(dp34
g2
Nsg7
Nsg8
I1
sg9
I7
sg10
Nsg11
Nsbsbsbsbsbsbsg7
Nsg8
Nsg9
I1
sg10
S'hurrican'
p35
sg11
(i__main__
Node
p36
(dp37
g2
Nsg7
Nsg8
I-1
sg9
I2
sg10
Nsg11
Nsbsb.