(i__main__
Node
p0
(dp1
S'right'
p2
(i__main__
Node
p3
(dp4
g2
(i__main__
Node
p5
(dp6
g2
(i__main__
Node
p7
(dp8
g2
NsS'parser'
p9
NsS'label'
p10
I-1
sS'depth'
p11
I4
sS'criterion'
p12
NsS'left'
p13
Nsbsg9
Nsg10
Nsg11
I3
sg12
S'time'
p14
sg13
(i__main__
Node
p15
(dp16
g2
(i__main__
Node
p17
(dp18
g2
Nsg9
Nsg10
I-1
sg11
I5
sg12
Nsg13
Nsbsg9
Nsg10
Nsg11
I4
sg12
S'day'
p19
sg13
(i__main__
Node
p20
(dp21
g2
Nsg9
Nsg10
I1
sg11
I5
sg12
Nsg13
Nsbsbsbsg9
Nsg10
Nsg11
I2
sg12
S'snow'
p22
sg13
(i__main__
Node
p23
(dp24
g2
(i__main__
Node
p25
(dp26
g2
(i__main__
Node
p27
(dp28
g2
Nsg9
Nsg10
I-1
sg11
I5
sg12
Nsg13
Nsbsg9
Nsg10
Nsg11
I4
sg12
S'melt'
p29
sg13
(i__main__
Node
p30
(dp31
g2
Nsg9
Nsg10
I1
sg11
I5
sg12
Nsg13
Nsbsbsg9
Nsg10
Nsg11
I3
sg12
S'we'
p32
sg13
(i__main__
Node
p33
(dp34
g2
(i__main__
Node
p35
(dp36
g2
Nsg9
Nsg10
I1
sg11
I5
sg12
Nsg13
Nsbsg9
Nsg10
Nsg11
I4
sg12
S'94'
p37
sg13
(i__main__
Node
p38
(dp39
g2
(i__main__
Node
p40
(dp41
g2
Nsg9
Nsg10
I1
sg11
I6
sg12
Nsg13
Nsbsg9
Nsg10
Nsg11
I5
sg12
S'cont'
p42
sg13
(i__main__
Node
p43
(dp44
g2
Nsg9
Nsg10
I-1
sg11
I6
sg12
Nsg13
Nsbsbsbsbsbsg9
Nsg10
Nsg11
I1
sg12
S'ice'
p45
sg13
(i__main__
Node
p46
(dp47
g2
(i__main__
Node
p48
(dp49
g2
Nsg9
Nsg10
I1
sg11
I3
sg12
Nsg13
Nsbsg9
Nsg10
Nsg11
I2
sg12
S'regularli'
p50
sg13
(i__main__
Node
p51
(dp52
g2
(i__main__
Node
p53
(dp54
g2
(i__main__
Node
p55
(dp56
g2
Nsg9
Nsg10
I1
sg11
I5
sg12
Nsg13
Nsbsg9
Nsg10
Nsg11
I4
sg12
S'd'
p57
sg13
(i__main__
Node
p58
(dp59
g2
Nsg9
Nsg10
I-1
sg11
I5
sg12
Nsg13
Nsbsbsg9
Nsg10
Nsg11
I3
sg12
S'sock'
p60
sg13
(i__main__
Node
p61
(dp62
g2
Nsg9
Nsg10
I-1
sg11
I4
sg12
Nsg13
Nsbsbsbsb.