(i__main__
Node
p0
(dp1
S'right'
p2
(i__main__
Node
p3
(dp4
g2
(i__main__
Node
p5
(dp6
g2
NsS'parser'
p7
NsS'label'
p8
I-1
sS'depth'
p9
I3
sS'criterion'
p10
NsS'left'
p11
Nsbsg7
Nsg8
Nsg9
I2
sg10
S'fog'
p12
sg11
(i__main__
Node
p13
(dp14
g2
(i__main__
Node
p15
(dp16
g2
Nsg7
Nsg8
I-1
sg9
I4
sg10
Nsg11
Nsbsg7
Nsg8
Nsg9
I3
sg10
S'may'
p17
sg11
(i__main__
Node
p18
(dp19
g2
(i__main__
Node
p20
(dp21
g2
(i__main__
Node
p22
(dp23
g2
Nsg7
Nsg8
I1
sg9
I6
sg10
Nsg11
Nsbsg7
Nsg8
Nsg9
I5
sg10
S'am'
p24
sg11
(i__main__
Node
p25
(dp26
g2
(i__main__
Node
p27
(dp28
g2
Nsg7
Nsg8
I1
sg9
I7
sg10
Nsg11
Nsbsg7
Nsg8
Nsg9
I6
sg10
S'fair'
p29
sg11
(i__main__
Node
p30
(dp31
g2
(i__main__
Node
p32
(dp33
g2
Nsg7
Nsg8
I1
sg9
I8
sg10
Nsg11
Nsbsg7
Nsg8
Nsg9
I7
sg10
S'durham'
p34
sg11
(i__main__
Node
p35
(dp36
g2
Nsg7
Nsg8
I-1
sg9
I8
sg10
Nsg11
Nsbsbsbsbsg7
Nsg8
Nsg9
I4
sg10
S'current'
p37
sg11
(i__main__
Node
p38
(dp39
g2
(i__main__
Node
p40
(dp41
g2
Nsg7
Nsg8
I-1
sg9
I6
sg10
Nsg11
Nsbsg7
Nsg8
Nsg9
I5
sg10
S'sunday'
p42
sg11
(i__main__
Node
p43
(dp44
g2
(i__main__
Node
p45
(dp46
g2
Nsg7
Nsg8
I-1
sg9
I7
sg10
Nsg11
Nsbsg7
Nsg8
Nsg9
I6
sg10
S'fri'
p47
sg11
(i__main__
Node
p48
(dp49
g2
(i__main__
Node
p50
(dp51
g2
Nsg7
Nsg8
I-1
sg9
I8
sg10
Nsg11
Nsbsg7
Nsg8
Nsg9
I7
sg10
S'night'
p52
sg11
(i__main__
Node
p53
(dp54
g2
(i__main__
Node
p55
(dp56
g2
Nsg7
Nsg8
I-1
sg9
I9
sg10
Nsg11
Nsbsg7
Nsg8
Nsg9
I8
sg10
S'gust'
p57
sg11
(i__main__
Node
p58
(dp59
g2
(i__main__
Node
p60
(dp61
g2
Nsg7
Nsg8
I1
sg9
I10
sg10
Nsg11
Nsbsg7
Nsg8
Nsg9
I9
sg10
S'forecast'
p62
sg11
(i__main__
Node
p63
(dp64
g2
(i__main__
Node
p65
(dp66
g2
Nsg7
Nsg8
I-1
sg9
I11
sg10
Nsg11
Nsbsg7
Nsg8
Nsg9
I10
sg10
S'slight'
p67
sg11
(i__main__
Node
p68
(dp69
g2
(i__main__
Node
p70
(dp71
g2
(i__main__
Node
p72
(dp73
g2
(i__main__
Node
p74
(dp75
g2
Nsg7
Nsg8
I1
sg9
I14
sg10
Nsg11
Nsbsg7
Nsg8
Nsg9
I13
sg10
S'love'
p76
sg11
(i__main__
Node
p77
(dp78
g2
Nsg7
Nsg8
I-1
sg9
I14
sg10
Nsg11
Nsbsbsg7
Nsg8
Nsg9
I12
sg10
S'rt'
p79
sg11
(i__main__
Node
p80
(dp81
g2
Nsg7
Nsg8
I1
sg9
I13
sg10
Nsg11
Nsbsbsg7
Nsg8
Nsg9
I11
sg10
S'weather'
p82
sg11
(i__main__
Node
p83
(dp84
g2
(i__main__
Node
p85
(dp86
g2
Nsg7
Nsg8
I-1
sg9
I13
sg10
Nsg11
Nsbsg7
Nsg8
Nsg9
I12
sg10
S'me'
p87
sg11
(i__main__
Node
p88
(dp89
g2
(i__main__
Node
p90
(dp91
g2
Nsg7
Nsg8
I1
sg9
I14
sg10
Nsg11
Nsbsg7
Nsg8
Nsg9
I13
sg10
S'windi'
p92
sg11
(i__main__
Node
p93
(dp94
g2
(i__main__
Node
p95
(dp96
g2
Nsg7
Nsg8
I-1
sg9
I15
sg10
Nsg11
Nsbsg7
Nsg8
Nsg9
I14
sg10
S'much'
p97
sg11
(i__main__
Node
p98
(dp99
g2
Nsg7
Nsg8
I1
sg9
I15
sg10
Nsg11
Nsbsbsbsbsbsbsbsbsbsbsbsbsbsbsg7
Nsg8
Nsg9
I1
sg10
S'cloudi'
p100
sg11
(i__main__
Node
p101
(dp102
g2
(i__main__
Node
p103
(dp104
g2
(i__main__
Node
p105
(dp106
g2
Nsg7
Nsg8
I-1
sg9
I4
sg10
Nsg11
Nsbsg7
Nsg8
Nsg9
I3
sg10
S'rain'
p107
sg11
(i__main__
Node
p108
(dp109
g2
(i__main__
Node
p110
(dp111
g2
Nsg7
Nsg8
I-1
sg9
I5
sg10
Nsg11
Nsbsg7
Nsg8
Nsg9
I4
sg10
S'nice'
p112
sg11
(i__main__
Node
p113
(dp114
g2
(i__main__
Node
p115
(dp116
g2
(i__main__
Node
p117
(dp118
g2
Nsg7
Nsg8
I1
sg9
I7
sg10
Nsg11
Nsbsg7
Nsg8
Nsg9
I6
sg10
S'maui'
p119
sg11
(i__main__
Node
p120
(dp121
g2
Nsg7
Nsg8
I-1
sg9
I7
sg10
Nsg11
Nsbsbsg7
Nsg8
Nsg9
I5
sg10
S'few'
p122
sg11
(i__main__
Node
p123
(dp124
g2
(i__main__
Node
p125
(dp126
g2
Nsg7
Nsg8
I-1
sg9
I7
sg10
Nsg11
Nsbsg7
Nsg8
Nsg9
I6
sg10
S'line'
p127
sg11
(i__main__
Node
p128
(dp129
g2
(i__main__
Node
p130
(dp131
g2
Nsg7
Nsg8
I1
sg9
I8
sg10
Nsg11
Nsbsg7
Nsg8
Nsg9
I7
sg10
S'now'
p132
sg11
(i__main__
Node
p133
(dp134
g2
(i__main__
Node
p135
(dp136
g2
Nsg7
Nsg8
I-1
sg9
I9
sg10
Nsg11
Nsbsg7
Nsg8
Nsg9
I8
sg10
S'ceil'
p137
sg11
(i__main__
Node
p138
(dp139
g2
(i__main__
Node
p140
(dp141
g2
Nsg7
Nsg8
I-1
sg9
I10
sg10
Nsg11
Nsbsg7
Nsg8
Nsg9
I9
sg10
S'perfect'
p142
sg11
(i__main__
Node
p143
(dp144
g2
(i__main__
Node
p145
(dp146
g2
Nsg7
Nsg8
I-1
sg9
I11
sg10
Nsg11
Nsbsg7
Nsg8
Nsg9
I10
sg10
S'funnel'
p147
sg11
(i__main__
Node
p148
(dp149
g2
(i__main__
Node
p150
(dp151
g2
Nsg7
Nsg8
I-1
sg9
I12
sg10
Nsg11
Nsbsg7
Nsg8
Nsg9
I11
sg10
S'what'
p152
sg11
(i__main__
Node
p153
(dp154
g2
(i__main__
Node
p155
(dp156
g2
Nsg7
Nsg8
I-1
sg9
I13
sg10
Nsg11
Nsbsg7
Nsg8
Nsg9
I12
sg10
S'citi'
p157
sg11
(i__main__
Node
p158
(dp159
g2
(i__main__
Node
p160
(dp161
g2
Nsg7
Nsg8
I-1
sg9
I14
sg10
Nsg11
Nsbsg7
Nsg8
Nsg9
I13
sg10
S'salt'
p162
sg11
(i__main__
Node
p163
(dp164
g2
(i__main__
Node
p165
(dp166
g2
Nsg7
Nsg8
I-1
sg9
I15
sg10
Nsg11
Nsbsg7
Nsg8
Nsg9
I14
sg10
S'stretch'
p167
sg11
(i__main__
Node
p168
(dp169
g2
Nsg7
Nsg8
I1
sg9
I15
sg10
Nsg11
Nsbsbsbsbsbsbsbsbsbsbsbsbsbsg7
Nsg8
Nsg9
I2
sg10
S'cloud'
p170
sg11
(i__main__
Node
p171
(dp172
g2
(i__main__
Node
p173
(dp174
g2
(i__main__
Node
p175
(dp176
g2
Nsg7
Nsg8
I1
sg9
I5
sg10
Nsg11
Nsbsg7
Nsg8
Nsg9
I4
sg10
S'chanc'
p177
sg11
(i__main__
Node
p178
(dp179
g2
(i__main__
Node
p180
(dp181
g2
Nsg7
Nsg8
I1
sg9
I6
sg10
Nsg11
Nsbsg7
Nsg8
Nsg9
I5
sg10
S'airport'
p182
sg11
(i__main__
Node
p183
(dp184
g2
(i__main__
Node
p185
(dp186
g2
(i__main__
Node
p187
(dp188
g2
Nsg7
Nsg8
I-1
sg9
I8
sg10
Nsg11
Nsbsg7
Nsg8
Nsg9
I7
sg10
S's'
p189
sg11
(i__main__
Node
p190
(dp191
g2
Nsg7
Nsg8
I1
sg9
I8
sg10
Nsg11
Nsbsbsg7
Nsg8
Nsg9
I6
sg10
S'day'
p192
sg11
(i__main__
Node
p193
(dp194
g2
(i__main__
Node
p195
(dp196
g2
(i__main__
Node
p197
(dp198
g2
Nsg7
Nsg8
I1
sg9
I9
sg10
Nsg11
Nsbsg7
Nsg8
Nsg9
I8
sg10
S'best'
p199
sg11
(i__main__
Node
p200
(dp201
g2
(i__main__
Node
p202
(dp203
g2
Nsg7
Nsg8
I1
sg9
I10
sg10
Nsg11
Nsbsg7
Nsg8
Nsg9
I9
sg10
S'tri'
p204
sg11
(i__main__
Node
p205
(dp206
g2
(i__main__
Node
p207
(dp208
g2
Nsg7
Nsg8
I1
sg9
I11
sg10
Nsg11
Nsbsg7
Nsg8
Nsg9
I10
sg10
S'59f'
p209
sg11
(i__main__
Node
p210
(dp211
g2
(i__main__
Node
p212
(dp213
g2
Nsg7
Nsg8
I1
sg9
I12
sg10
Nsg11
Nsbsg7
Nsg8
Nsg9
I11
sg10
S'cold'
p214
sg11
(i__main__
Node
p215
(dp216
g2
Nsg7
Nsg8
I-1
sg9
I12
sg10
Nsg11
Nsbsbsbsbsbsg7
Nsg8
Nsg9
I7
sg10
g82
sg11
(i__main__
Node
p217
(dp218
g2
Nsg7
Nsg8
I-1
sg9
I8
sg10
Nsg11
Nsbsbsbsbsbsg7
Nsg8
Nsg9
I3
sg10
S'overcast'
p219
sg11
(i__main__
Node
p220
(dp221
g2
(i__main__
Node
p222
(dp223
g2
(i__main__
Node
p224
(dp225
g2
Nsg7
Nsg8
I1
sg9
I6
sg10
Nsg11
Nsbsg7
Nsg8
Nsg9
I5
sg10
S'sunshin'
p226
sg11
(i__main__
Node
p227
(dp228
g2
Nsg7
Nsg8
I-1
sg9
I6
sg10
Nsg11
Nsbsbsg7
Nsg8
Nsg9
I4
sg10
S'grey'
p229
sg11
(i__main__
Node
p230
(dp231
g2
(i__main__
Node
p232
(dp233
g2
Nsg7
Nsg8
I1
sg9
I6
sg10
Nsg11
Nsbsg7
Nsg8
Nsg9
I5
sg10
S'rori'
p234
sg11
(i__main__
Node
p235
(dp236
g2
(i__main__
Node
p237
(dp238
g2
Nsg7
Nsg8
I1
sg9
I7
sg10
Nsg11
Nsbsg7
Nsg8
Nsg9
I6
sg10
S'obsess'
p239
sg11
(i__main__
Node
p240
(dp241
g2
(i__main__
Node
p242
(dp243
g2
(i__main__
Node
p244
(dp245
g2
Nsg7
Nsg8
I1
sg9
I9
sg10
Nsg11
Nsbsg7
Nsg8
Nsg9
I8
sg10
g76
sg11
(i__main__
Node
p246
(dp247
g2
Nsg7
Nsg8
I-1
sg9
I9
sg10
Nsg11
Nsbsbsg7
Nsg8
Nsg9
I7
sg10
S'greet'
p248
sg11
(i__main__
Node
p249
(dp250
g2
(i__main__
Node
p251
(dp252
g2
(i__main__
Node
p253
(dp254
g2
(i__main__
Node
p255
(dp256
g2
Nsg7
Nsg8
I1
sg9
I11
sg10
Nsg11
Nsbsg7
Nsg8
Nsg9
I10
sg10
g189
sg11
(i__main__
Node
p257
(dp258
g2
Nsg7
Nsg8
I-1
sg9
I11
sg10
Nsg11
Nsbsbsg7
Nsg8
Nsg9
I9
sg10
S'she'
p259
sg11
(i__main__
Node
p260
(dp261
g2
Nsg7
Nsg8
I-1
sg9
I10
sg10
Nsg11
Nsbsbsg7
Nsg8
Nsg9
I8
sg10
S'ain'
p262
sg11
(i__main__
Node
p263
(dp264
g2
Nsg7
Nsg8
I-1
sg9
I9
sg10
Nsg11
Nsbsbsbsbsbsbsbsbsb.