(i__main__
Node
p0
(dp1
S'right'
p2
(i__main__
Node
p3
(dp4
g2
(i__main__
Node
p5
(dp6
g2
(i__main__
Node
p7
(dp8
g2
NsS'parser'
p9
NsS'label'
p10
I-1
sS'depth'
p11
I4
sS'criterion'
p12
NsS'left'
p13
Nsbsg9
Nsg10
Nsg11
I3
sg12
S'up'
p14
sg13
(i__main__
Node
p15
(dp16
g2
(i__main__
Node
p17
(dp18
g2
Nsg9
Nsg10
I1
sg11
I5
sg12
Nsg13
Nsbsg9
Nsg10
Nsg11
I4
sg12
S'dalla'
p19
sg13
(i__main__
Node
p20
(dp21
g2
(i__main__
Node
p22
(dp23
g2
Nsg9
Nsg10
I1
sg11
I6
sg12
Nsg13
Nsbsg9
Nsg10
Nsg11
I5
sg12
S'servic'
p24
sg13
(i__main__
Node
p25
(dp26
g2
(i__main__
Node
p27
(dp28
g2
Nsg9
Nsg10
I1
sg11
I7
sg12
Nsg13
Nsbsg9
Nsg10
Nsg11
I6
sg12
S'have'
p29
sg13
(i__main__
Node
p30
(dp31
g2
(i__main__
Node
p32
(dp33
g2
Nsg9
Nsg10
I1
sg11
I8
sg12
Nsg13
Nsbsg9
Nsg10
Nsg11
I7
sg12
S'post'
p34
sg13
(i__main__
Node
p35
(dp36
g2
(i__main__
Node
p37
(dp38
g2
Nsg9
Nsg10
I1
sg11
I9
sg12
Nsg13
Nsbsg9
Nsg10
Nsg11
I8
sg12
S'anoth'
p39
sg13
(i__main__
Node
p40
(dp41
g2
(i__main__
Node
p42
(dp43
g2
Nsg9
Nsg10
I1
sg11
I10
sg12
Nsg13
Nsbsg9
Nsg10
Nsg11
I9
sg12
S'stay'
p44
sg13
(i__main__
Node
p45
(dp46
g2
(i__main__
Node
p47
(dp48
g2
Nsg9
Nsg10
I1
sg11
I11
sg12
Nsg13
Nsbsg9
Nsg10
Nsg11
I10
sg12
S'while'
p49
sg13
(i__main__
Node
p50
(dp51
g2
(i__main__
Node
p52
(dp53
g2
(i__main__
Node
p54
(dp55
g2
Nsg9
Nsg10
I-1
sg11
I13
sg12
Nsg13
Nsbsg9
Nsg10
Nsg11
I12
sg12
S'offer'
p56
sg13
(i__main__
Node
p57
(dp58
g2
Nsg9
Nsg10
I1
sg11
I13
sg12
Nsg13
Nsbsbsg9
Nsg10
Nsg11
I11
sg12
S'take'
p59
sg13
(i__main__
Node
p60
(dp61
g2
(i__main__
Node
p62
(dp63
g2
Nsg9
Nsg10
I1
sg11
I13
sg12
Nsg13
Nsbsg9
Nsg10
Nsg11
I12
sg12
S'who'
p64
sg13
(i__main__
Node
p65
(dp66
g2
(i__main__
Node
p67
(dp68
g2
(i__main__
Node
p69
(dp70
g2
Nsg9
Nsg10
I1
sg11
I15
sg12
Nsg13
Nsbsg9
Nsg10
Nsg11
I14
sg12
S'warn'
p71
sg13
(i__main__
Node
p72
(dp73
g2
Nsg9
Nsg10
I-1
sg11
I15
sg12
Nsg13
Nsbsbsg9
Nsg10
Nsg11
I13
sg12
S'watch'
p74
sg13
(i__main__
Node
p75
(dp76
g2
(i__main__
Node
p77
(dp78
g2
Nsg9
Nsg10
I1
sg11
I15
sg12
Nsg13
Nsbsg9
Nsg10
Nsg11
I14
sg12
S're'
p79
sg13
(i__main__
Node
p80
(dp81
g2
Nsg9
Nsg10
I-1
sg11
I15
sg12
Nsg13
Nsbsbsbsbsbsbsbsbsbsbsbsbsbsg9
Nsg10
Nsg11
I2
sg12
S'tornado'
p82
sg13
(i__main__
Node
p83
(dp84
g2
(i__main__
Node
p85
(dp86
g2
(i__main__
Node
p87
(dp88
g2
Nsg9
Nsg10
I1
sg11
I5
sg12
Nsg13
Nsbsg9
Nsg10
Nsg11
I4
sg12
S'co'
p89
sg13
(i__main__
Node
p90
(dp91
g2
(i__main__
Node
p92
(dp93
g2
Nsg9
Nsg10
I1
sg11
I6
sg12
Nsg13
Nsbsg9
Nsg10
Nsg11
I5
sg12
S'know'
p94
sg13
(i__main__
Node
p95
(dp96
g2
(i__main__
Node
p97
(dp98
g2
(i__main__
Node
p99
(dp100
g2
Nsg9
Nsg10
I-1
sg11
I8
sg12
Nsg13
Nsbsg9
Nsg10
Nsg11
I7
sg12
S'monday'
p101
sg13
(i__main__
Node
p102
(dp103
g2
Nsg9
Nsg10
I1
sg11
I8
sg12
Nsg13
Nsbsbsg9
Nsg10
Nsg11
I6
sg12
S'my'
p104
sg13
(i__main__
Node
p105
(dp106
g2
(i__main__
Node
p107
(dp108
g2
Nsg9
Nsg10
I1
sg11
I8
sg12
Nsg13
Nsbsg9
Nsg10
Nsg11
I7
sg12
S'd'
p109
sg13
(i__main__
Node
p110
(dp111
g2
(i__main__
Node
p112
(dp113
g2
Nsg9
Nsg10
I1
sg11
I9
sg12
Nsg13
Nsbsg9
Nsg10
Nsg11
I8
sg12
S'tonight'
p114
sg13
(i__main__
Node
p115
(dp116
g2
Nsg9
Nsg10
I-1
sg11
I9
sg12
Nsg13
Nsbsbsbsbsbsbsg9
Nsg10
Nsg11
I3
sg12
S'snow'
p117
sg13
(i__main__
Node
p118
(dp119
g2
(i__main__
Node
p120
(dp121
g2
(i__main__
Node
p122
(dp123
g2
Nsg9
Nsg10
I1
sg11
I6
sg12
Nsg13
Nsbsg9
Nsg10
Nsg11
I5
sg12
S'thunder'
p124
sg13
(i__main__
Node
p125
(dp126
g2
(i__main__
Node
p127
(dp128
g2
Nsg9
Nsg10
I1
sg11
I7
sg12
Nsg13
Nsbsg9
Nsg10
Nsg11
I6
sg12
S'hail'
p129
sg13
(i__main__
Node
p130
(dp131
g2
(i__main__
Node
p132
(dp133
g2
Nsg9
Nsg10
I1
sg11
I8
sg12
Nsg13
Nsbsg9
Nsg10
Nsg11
I7
sg12
S'come'
p134
sg13
(i__main__
Node
p135
(dp136
g2
(i__main__
Node
p137
(dp138
g2
Nsg9
Nsg10
I1
sg11
I9
sg12
Nsg13
Nsbsg9
Nsg10
Nsg11
I8
sg12
S'bring'
p139
sg13
(i__main__
Node
p140
(dp141
g2
(i__main__
Node
p142
(dp143
g2
(i__main__
Node
p144
(dp145
g2
Nsg9
Nsg10
I-1
sg11
I11
sg12
Nsg13
Nsbsg9
Nsg10
Nsg11
I10
sg12
S'chanc'
p146
sg13
(i__main__
Node
p147
(dp148
g2
(i__main__
Node
p149
(dp150
g2
Nsg9
Nsg10
I-1
sg11
I12
sg12
Nsg13
Nsbsg9
Nsg10
Nsg11
I11
sg12
S'here'
p151
sg13
(i__main__
Node
p152
(dp153
g2
Nsg9
Nsg10
I1
sg11
I12
sg12
Nsg13
Nsbsbsbsg9
Nsg10
Nsg11
I9
sg12
S's'
p154
sg13
(i__main__
Node
p155
(dp156
g2
(i__main__
Node
p157
(dp158
g2
Nsg9
Nsg10
I1
sg11
I11
sg12
Nsg13
Nsbsg9
Nsg10
Nsg11
I10
sg12
S'tomorrow'
p159
sg13
(i__main__
Node
p160
(dp161
g2
(i__main__
Node
p162
(dp163
g2
Nsg9
Nsg10
I-1
sg11
I12
sg12
Nsg13
Nsbsg9
Nsg10
Nsg11
I11
sg12
S'i'
p164
sg13
(i__main__
Node
p165
(dp166
g2
(i__main__
Node
p167
(dp168
g2
Nsg9
Nsg10
I-1
sg11
I13
sg12
Nsg13
Nsbsg9
Nsg10
Nsg11
I12
sg12
S'rt'
p169
sg13
(i__main__
Node
p170
(dp171
g2
(i__main__
Node
p172
(dp173
g2
Nsg9
Nsg10
I-1
sg11
I14
sg12
Nsg13
Nsbsg9
Nsg10
Nsg11
I13
sg12
S'should'
p174
sg13
(i__main__
Node
p175
(dp176
g2
(i__main__
Node
p177
(dp178
g2
Nsg9
Nsg10
I-1
sg11
I15
sg12
Nsg13
Nsbsg9
Nsg10
Nsg11
I14
sg12
S'5'
p179
sg13
(i__main__
Node
p180
(dp181
g2
Nsg9
Nsg10
I1
sg11
I15
sg12
Nsg13
Nsbsbsbsbsbsbsbsbsbsbsbsg9
Nsg10
Nsg11
I4
sg12
S'rain'
p182
sg13
(i__main__
Node
p183
(dp184
g2
(i__main__
Node
p185
(dp186
g2
Nsg9
Nsg10
I-1
sg11
I6
sg12
Nsg13
Nsbsg9
Nsg10
Nsg11
I5
sg12
S'demand'
p187
sg13
(i__main__
Node
p188
(dp189
g2
(i__main__
Node
p190
(dp191
g2
Nsg9
Nsg10
I1
sg11
I7
sg12
Nsg13
Nsbsg9
Nsg10
Nsg11
I6
sg12
S'sever'
p192
sg13
(i__main__
Node
p193
(dp194
g2
(i__main__
Node
p195
(dp196
g2
(i__main__
Node
p197
(dp198
g2
Nsg9
Nsg10
I1
sg11
I9
sg12
Nsg13
Nsbsg9
Nsg10
Nsg11
I8
sg12
g164
sg13
(i__main__
Node
p199
(dp200
g2
Nsg9
Nsg10
I-1
sg11
I9
sg12
Nsg13
Nsbsbsg9
Nsg10
Nsg11
I7
sg12
S'yeah'
p201
sg13
(i__main__
Node
p202
(dp203
g2
(i__main__
Node
p204
(dp205
g2
Nsg9
Nsg10
I1
sg11
I9
sg12
Nsg13
Nsbsg9
Nsg10
Nsg11
I8
sg12
S'look'
p206
sg13
(i__main__
Node
p207
(dp208
g2
(i__main__
Node
p209
(dp210
g2
Nsg9
Nsg10
I-1
sg11
I10
sg12
Nsg13
Nsbsg9
Nsg10
Nsg11
I9
sg12
S'hurt'
p211
sg13
(i__main__
Node
p212
(dp213
g2
(i__main__
Node
p214
(dp215
g2
(i__main__
Node
p216
(dp217
g2
Nsg9
Nsg10
I1
sg11
I12
sg12
Nsg13
Nsbsg9
Nsg10
Nsg11
I11
sg12
g169
sg13
(i__main__
Node
p218
(dp219
g2
(i__main__
Node
p220
(dp221
g2
(i__main__
Node
p222
(dp223
g2
Nsg9
Nsg10
I-1
sg11
I14
sg12
Nsg13
Nsbsg9
Nsg10
Nsg11
I13
sg12
S'realli'
p224
sg13
(i__main__
Node
p225
(dp226
g2
Nsg9
Nsg10
I1
sg11
I14
sg12
Nsg13
Nsbsbsg9
Nsg10
Nsg11
I12
sg12
g154
sg13
(i__main__
Node
p227
(dp228
g2
(i__main__
Node
p229
(dp230
g2
Nsg9
Nsg10
I1
sg11
I14
sg12
Nsg13
Nsbsg9
Nsg10
Nsg11
I13
sg12
g114
sg13
(i__main__
Node
p231
(dp232
g2
(i__main__
Node
p233
(dp234
g2
Nsg9
Nsg10
I1
sg11
I15
sg12
Nsg13
Nsbsg9
Nsg10
Nsg11
I14
sg12
S'so'
p235
sg13
(i__main__
Node
p236
(dp237
g2
Nsg9
Nsg10
I-1
sg11
I15
sg12
Nsg13
Nsbsbsbsbsbsg9
Nsg10
Nsg11
I10
sg12
S'what'
p238
sg13
(i__main__
Node
p239
(dp240
g2
(i__main__
Node
p241
(dp242
g2
(i__main__
Node
p243
(dp244
g2
Nsg9
Nsg10
I-1
sg11
I13
sg12
Nsg13
Nsbsg9
Nsg10
Nsg11
I12
sg12
g154
sg13
(i__main__
Node
p245
(dp246
g2
(i__main__
Node
p247
(dp248
g2
Nsg9
Nsg10
I-1
sg11
I14
sg12
Nsg13
Nsbsg9
Nsg10
Nsg11
I13
sg12
S'mostli'
p249
sg13
(i__main__
Node
p250
(dp251
g2
(i__main__
Node
p252
(dp253
g2
Nsg9
Nsg10
I-1
sg11
I15
sg12
Nsg13
Nsbsg9
Nsg10
Nsg11
I14
sg12
S'spark'
p254
sg13
(i__main__
Node
p255
(dp256
g2
Nsg9
Nsg10
I1
sg11
I15
sg12
Nsg13
Nsbsbsbsbsg9
Nsg10
Nsg11
I11
sg12
S'forecast'
p257
sg13
(i__main__
Node
p258
(dp259
g2
(i__main__
Node
p260
(dp261
g2
Nsg9
Nsg10
I-1
sg11
I13
sg12
Nsg13
Nsbsg9
Nsg10
Nsg11
I12
sg12
S'bright'
p262
sg13
(i__main__
Node
p263
(dp264
g2
(i__main__
Node
p265
(dp266
g2
Nsg9
Nsg10
I-1
sg11
I14
sg12
Nsg13
Nsbsg9
Nsg10
Nsg11
I13
sg12
S'break'
p267
sg13
(i__main__
Node
p268
(dp269
g2
(i__main__
Node
p270
(dp271
g2
Nsg9
Nsg10
I-1
sg11
I15
sg12
Nsg13
Nsbsg9
Nsg10
Nsg11
I14
sg12
S'mph'
p272
sg13
(i__main__
Node
p273
(dp274
g2
Nsg9
Nsg10
I1
sg11
I15
sg12
Nsg13
Nsbsbsbsbsbsbsbsbsbsbsbsbsbsbsg9
Nsg10
Nsg11
I1
sg12
S'storm'
p275
sg13
(i__main__
Node
p276
(dp277
g2
(i__main__
Node
p278
(dp279
g2
(i__main__
Node
p280
(dp281
g2
Nsg9
Nsg10
I-1
sg11
I4
sg12
Nsg13
Nsbsg9
Nsg10
Nsg11
I3
sg12
S'yet'
p282
sg13
(i__main__
Node
p283
(dp284
g2
(i__main__
Node
p285
(dp286
g2
Nsg9
Nsg10
I-1
sg11
I5
sg12
Nsg13
Nsbsg9
Nsg10
Nsg11
I4
sg12
S'raleigh'
p287
sg13
(i__main__
Node
p288
(dp289
g2
(i__main__
Node
p290
(dp291
g2
(i__main__
Node
p292
(dp293
g2
Nsg9
Nsg10
I-1
sg11
I7
sg12
Nsg13
Nsbsg9
Nsg10
Nsg11
I6
sg12
g104
sg13
(i__main__
Node
p294
(dp295
g2
Nsg9
Nsg10
I1
sg11
I7
sg12
Nsg13
Nsbsbsg9
Nsg10
Nsg11
I5
sg12
S'back'
p296
sg13
(i__main__
Node
p297
(dp298
g2
(i__main__
Node
p299
(dp300
g2
Nsg9
Nsg10
I-1
sg11
I7
sg12
Nsg13
Nsbsg9
Nsg10
Nsg11
I6
sg12
S'll'
p301
sg13
(i__main__
Node
p302
(dp303
g2
(i__main__
Node
p304
(dp305
g2
(i__main__
Node
p306
(dp307
g2
Nsg9
Nsg10
I-1
sg11
I9
sg12
Nsg13
Nsbsg9
Nsg10
Nsg11
I8
sg12
g159
sg13
(i__main__
Node
p308
(dp309
g2
(i__main__
Node
p310
(dp311
g2
Nsg9
Nsg10
I-1
sg11
I10
sg12
Nsg13
Nsbsg9
Nsg10
Nsg11
I9
sg12
S'day'
p312
sg13
(i__main__
Node
p313
(dp314
g2
(i__main__
Node
p315
(dp316
g2
Nsg9
Nsg10
I-1
sg11
I11
sg12
Nsg13
Nsbsg9
Nsg10
Nsg11
I10
sg12
S'wv'
p317
sg13
(i__main__
Node
p318
(dp319
g2
(i__main__
Node
p320
(dp321
g2
Nsg9
Nsg10
I-1
sg11
I12
sg12
Nsg13
Nsbsg9
Nsg10
Nsg11
I11
sg12
S'clear'
p322
sg13
(i__main__
Node
p323
(dp324
g2
Nsg9
Nsg10
I1
sg11
I12
sg12
Nsg13
Nsbsbsbsbsbsg9
Nsg10
Nsg11
I7
sg12
S'high'
p325
sg13
(i__main__
Node
p326
(dp327
g2
(i__main__
Node
p328
(dp329
g2
Nsg9
Nsg10
I-1
sg11
I9
sg12
Nsg13
Nsbsg9
Nsg10
Nsg11
I8
sg12
S'potter'
p330
sg13
(i__main__
Node
p331
(dp332
g2
(i__main__
Node
p333
(dp334
g2
Nsg9
Nsg10
I-1
sg11
I10
sg12
Nsg13
Nsbsg9
Nsg10
Nsg11
I9
sg12
S'thor'
p335
sg13
(i__main__
Node
p336
(dp337
g2
(i__main__
Node
p338
(dp339
g2
(i__main__
Node
p340
(dp341
g2
Nsg9
Nsg10
I-1
sg11
I12
sg12
Nsg13
Nsbsg9
Nsg10
Nsg11
I11
sg12
S'until'
p342
sg13
(i__main__
Node
p343
(dp344
g2
(i__main__
Node
p345
(dp346
g2
Nsg9
Nsg10
I-1
sg11
I13
sg12
Nsg13
Nsbsg9
Nsg10
Nsg11
I12
sg12
S'st'
p347
sg13
(i__main__
Node
p348
(dp349
g2
(i__main__
Node
p350
(dp351
g2
Nsg9
Nsg10
I-1
sg11
I14
sg12
Nsg13
Nsbsg9
Nsg10
Nsg11
I13
sg12
S'face'
p352
sg13
(i__main__
Node
p353
(dp354
g2
Nsg9
Nsg10
I1
sg11
I14
sg12
Nsg13
Nsbsbsbsbsg9
Nsg10
Nsg11
I10
sg12
g182
sg13
(i__main__
Node
p355
(dp356
g2
(i__main__
Node
p357
(dp358
g2
Nsg9
Nsg10
I-1
sg11
I12
sg12
Nsg13
Nsbsg9
Nsg10
Nsg11
I11
sg12
S'after'
p359
sg13
(i__main__
Node
p360
(dp361
g2
(i__main__
Node
p362
(dp363
g2
(i__main__
Node
p364
(dp365
g2
Nsg9
Nsg10
I-1
sg11
I14
sg12
Nsg13
Nsbsg9
Nsg10
Nsg11
I13
sg12
S'leesburg'
p366
sg13
(i__main__
Node
p367
(dp368
g2
(i__main__
Node
p369
(dp370
g2
Nsg9
Nsg10
I1
sg11
I15
sg12
Nsg13
Nsbsg9
Nsg10
Nsg11
I14
sg12
S'like'
p371
sg13
(i__main__
Node
p372
(dp373
g2
Nsg9
Nsg10
I1
sg11
I15
sg12
Nsg13
Nsbsbsbsg9
Nsg10
Nsg11
I12
sg12
g146
sg13
(i__main__
Node
p374
(dp375
g2
(i__main__
Node
p376
(dp377
g2
(i__main__
Node
p378
(dp379
g2
Nsg9
Nsg10
I-1
sg11
I15
sg12
Nsg13
Nsbsg9
Nsg10
Nsg11
I14
sg12
g342
sg13
(i__main__
Node
p380
(dp381
g2
Nsg9
Nsg10
I1
sg11
I15
sg12
Nsg13
Nsbsbsg9
Nsg10
Nsg11
I13
sg12
S'al'
p382
sg13
(i__main__
Node
p383
(dp384
g2
(i__main__
Node
p385
(dp386
g2
Nsg9
Nsg10
I-1
sg11
I15
sg12
Nsg13
Nsbsg9
Nsg10
Nsg11
I14
sg12
S'partli'
p387
sg13
(i__main__
Node
p388
(dp389
g2
Nsg9
Nsg10
I1
sg11
I15
sg12
Nsg13
Nsbsbsbsbsbsbsbsbsbsbsbsbsbsg9
Nsg10
Nsg11
I2
sg12
S'thunderstorm'
p390
sg13
(i__main__
Node
p391
(dp392
g2
(i__main__
Node
p393
(dp394
g2
Nsg9
Nsg10
I1
sg11
I4
sg12
Nsg13
Nsbsg9
Nsg10
Nsg11
I3
sg12
S'stormi'
p395
sg13
(i__main__
Node
p396
(dp397
g2
(i__main__
Node
p398
(dp399
g2
(i__main__
Node
p400
(dp401
g2
(i__main__
Node
p402
(dp403
g2
Nsg9
Nsg10
I1
sg11
I7
sg12
Nsg13
Nsbsg9
Nsg10
Nsg11
I6
sg12
S'mention'
p404
sg13
(i__main__
Node
p405
(dp406
g2
(i__main__
Node
p407
(dp408
g2
Nsg9
Nsg10
I1
sg11
I8
sg12
Nsg13
Nsbsg9
Nsg10
Nsg11
I7
sg12
g124
sg13
(i__main__
Node
p409
(dp410
g2
Nsg9
Nsg10
I-1
sg11
I8
sg12
Nsg13
Nsbsbsbsg9
Nsg10
Nsg11
I5
sg12
g71
sg13
(i__main__
Node
p411
(dp412
g2
(i__main__
Node
p413
(dp414
g2
Nsg9
Nsg10
I1
sg11
I7
sg12
Nsg13
Nsbsg9
Nsg10
Nsg11
I6
sg12
S'came'
p415
sg13
(i__main__
Node
p416
(dp417
g2
(i__main__
Node
p418
(dp419
g2
Nsg9
Nsg10
I1
sg11
I8
sg12
Nsg13
Nsbsg9
Nsg10
Nsg11
I7
sg12
S'eastern'
p420
sg13
(i__main__
Node
p421
(dp422
g2
(i__main__
Node
p423
(dp424
g2
Nsg9
Nsg10
I1
sg11
I9
sg12
Nsg13
Nsbsg9
Nsg10
Nsg11
I8
sg12
S'fox'
p425
sg13
(i__main__
Node
p426
(dp427
g2
(i__main__
Node
p428
(dp429
g2
Nsg9
Nsg10
I1
sg11
I10
sg12
Nsg13
Nsbsg9
Nsg10
Nsg11
I9
sg12
S'data'
p430
sg13
(i__main__
Node
p431
(dp432
g2
(i__main__
Node
p433
(dp434
g2
Nsg9
Nsg10
I1
sg11
I11
sg12
Nsg13
Nsbsg9
Nsg10
Nsg11
I10
sg12
S'power'
p435
sg13
(i__main__
Node
p436
(dp437
g2
(i__main__
Node
p438
(dp439
g2
Nsg9
Nsg10
I1
sg11
I12
sg12
Nsg13
Nsbsg9
Nsg10
Nsg11
I11
sg12
S'night'
p440
sg13
(i__main__
Node
p441
(dp442
g2
(i__main__
Node
p443
(dp444
g2
Nsg9
Nsg10
I1
sg11
I13
sg12
Nsg13
Nsbsg9
Nsg10
Nsg11
I12
sg12
S'ch'
p445
sg13
(i__main__
Node
p446
(dp447
g2
(i__main__
Node
p448
(dp449
g2
Nsg9
Nsg10
I1
sg11
I14
sg12
Nsg13
Nsbsg9
Nsg10
Nsg11
I13
sg12
S'tbw'
p450
sg13
(i__main__
Node
p451
(dp452
g2
Nsg9
Nsg10
I-1
sg11
I14
sg12
Nsg13
Nsbsbsbsbsbsbsbsbsbsbsg9
Nsg10
Nsg11
I4
sg12
g192
sg13
(i__main__
Node
p453
(dp454
g2
(i__main__
Node
p455
(dp456
g2
(i__main__
Node
p457
(dp458
g2
(i__main__
Node
p459
(dp460
g2
Nsg9
Nsg10
I1
sg11
I8
sg12
Nsg13
Nsbsg9
Nsg10
Nsg11
I7
sg12
S'want'
p461
sg13
(i__main__
Node
p462
(dp463
g2
(i__main__
Node
p464
(dp465
g2
Nsg9
Nsg10
I1
sg11
I9
sg12
Nsg13
Nsbsg9
Nsg10
Nsg11
I8
sg12
S'right'
p466
sg13
(i__main__
Node
p467
(dp468
g2
(i__main__
Node
p469
(dp470
g2
Nsg9
Nsg10
I1
sg11
I10
sg12
Nsg13
Nsbsg9
Nsg10
Nsg11
I9
sg12
S'ohh'
p471
sg13
(i__main__
Node
p472
(dp473
g2
(i__main__
Node
p474
(dp475
g2
Nsg9
Nsg10
I1
sg11
I11
sg12
Nsg13
Nsbsg9
Nsg10
Nsg11
I10
sg12
g139
sg13
(i__main__
Node
p476
(dp477
g2
Nsg9
Nsg10
I-1
sg11
I11
sg12
Nsg13
Nsbsbsbsbsbsg9
Nsg10
Nsg11
I6
sg12
g404
sg13
(i__main__
Node
p478
(dp479
g2
Nsg9
Nsg10
I-1
sg11
I7
sg12
Nsg13
Nsbsbsg9
Nsg10
Nsg11
I5
sg12
S'blizzard'
p480
sg13
(i__main__
Node
p481
(dp482
g2
(i__main__
Node
p483
(dp484
g2
(i__main__
Node
p485
(dp486
g2
(i__main__
Node
p487
(dp488
g2
Nsg9
Nsg10
I-1
sg11
I9
sg12
Nsg13
Nsbsg9
Nsg10
Nsg11
I8
sg12
g169
sg13
(i__main__
Node
p489
(dp490
g2
Nsg9
Nsg10
I1
sg11
I9
sg12
Nsg13
Nsbsbsg9
Nsg10
Nsg11
I7
sg12
g312
sg13
(i__main__
Node
p491
(dp492
g2
(i__main__
Node
p493
(dp494
g2
Nsg9
Nsg10
I1
sg11
I9
sg12
Nsg13
Nsbsg9
Nsg10
Nsg11
I8
sg12
S'wtf'
p495
sg13
(i__main__
Node
p496
(dp497
g2
Nsg9
Nsg10
I-1
sg11
I9
sg12
Nsg13
Nsbsbsbsg9
Nsg10
Nsg11
I6
sg12
g124
sg13
(i__main__
Node
p498
(dp499
g2
(i__main__
Node
p500
(dp501
g2
Nsg9
Nsg10
I1
sg11
I8
sg12
Nsg13
Nsbsg9
Nsg10
Nsg11
I7
sg12
S'truckload'
p502
sg13
(i__main__
Node
p503
(dp504
g2
(i__main__
Node
p505
(dp506
g2
Nsg9
Nsg10
I1
sg11
I9
sg12
Nsg13
Nsbsg9
Nsg10
Nsg11
I8
sg12
S'graphic'
p507
sg13
(i__main__
Node
p508
(dp509
g2
(i__main__
Node
p510
(dp511
g2
Nsg9
Nsg10
I1
sg11
I10
sg12
Nsg13
Nsbsg9
Nsg10
Nsg11
I9
sg12
S'weezi'
p512
sg13
(i__main__
Node
p513
(dp514
g2
(i__main__
Node
p515
(dp516
g2
(i__main__
Node
p517
(dp518
g2
Nsg9
Nsg10
I-1
sg11
I12
sg12
Nsg13
Nsbsg9
Nsg10
Nsg11
I11
sg12
S'fog'
p519
sg13
(i__main__
Node
p520
(dp521
g2
Nsg9
Nsg10
I1
sg11
I12
sg12
Nsg13
Nsbsbsg9
Nsg10
Nsg11
I10
sg12
S'strm'
p522
sg13
(i__main__
Node
p523
(dp524
g2
(i__main__
Node
p525
(dp526
g2
(i__main__
Node
p527
(dp528
g2
Nsg9
Nsg10
I1
sg11
I13
sg12
Nsg13
Nsbsg9
Nsg10
Nsg11
I12
sg12
S'you'
p529
sg13
(i__main__
Node
p530
(dp531
g2
Nsg9
Nsg10
I-1
sg11
I13
sg12
Nsg13
Nsbsbsg9
Nsg10
Nsg11
I11
sg12
S'bedtim'
p532
sg13
(i__main__
Node
p533
(dp534
g2
(i__main__
Node
p535
(dp536
g2
(i__main__
Node
p537
(dp538
g2
Nsg9
Nsg10
I1
sg11
I14
sg12
Nsg13
Nsbsg9
Nsg10
Nsg11
I13
sg12
S'wednesday'
p539
sg13
(i__main__
Node
p540
(dp541
g2
Nsg9
Nsg10
I-1
sg11
I14
sg12
Nsg13
Nsbsbsg9
Nsg10
Nsg11
I12
sg12
S'pretend'
p542
sg13
(i__main__
Node
p543
(dp544
g2
(i__main__
Node
p545
(dp546
g2
(i__main__
Node
p547
(dp548
g2
Nsg9
Nsg10
I-1
sg11
I15
sg12
Nsg13
Nsbsg9
Nsg10
Nsg11
I14
sg12
g117
sg13
(i__main__
Node
p549
(dp550
g2
Nsg9
Nsg10
I-1
sg11
I15
sg12
Nsg13
Nsbsbsg9
Nsg10
Nsg11
I13
sg12
S'life'
p551
sg13
(i__main__
Node
p552
(dp553
g2
Nsg9
Nsg10
I-1
sg11
I14
sg12
Nsg13
Nsbsbsbsbsbsbsbsbsbsbsbsbsbsb.