(i__main__
Node
p0
(dp1
S'right'
p2
(i__main__
Node
p3
(dp4
g2
(i__main__
Node
p5
(dp6
g2
NsS'parser'
p7
NsS'label'
p8
I1
sS'depth'
p9
I3
sS'criterion'
p10
NsS'left'
p11
Nsbsg7
Nsg8
Nsg9
I2
sg10
S'live'
p12
sg11
(i__main__
Node
p13
(dp14
g2
(i__main__
Node
p15
(dp16
g2
(i__main__
Node
p17
(dp18
g2
(i__main__
Node
p19
(dp20
g2
Nsg7
Nsg8
I1
sg9
I6
sg10
Nsg11
Nsbsg7
Nsg8
Nsg9
I5
sg10
S'past'
p21
sg11
(i__main__
Node
p22
(dp23
g2
Nsg7
Nsg8
I-1
sg9
I6
sg10
Nsg11
Nsbsbsg7
Nsg8
Nsg9
I4
sg10
S'missouri'
p24
sg11
(i__main__
Node
p25
(dp26
g2
(i__main__
Node
p27
(dp28
g2
Nsg7
Nsg8
I-1
sg9
I6
sg10
Nsg11
Nsbsg7
Nsg8
Nsg9
I5
sg10
S'straight'
p29
sg11
(i__main__
Node
p30
(dp31
g2
(i__main__
Node
p32
(dp33
g2
Nsg7
Nsg8
I-1
sg9
I7
sg10
Nsg11
Nsbsg7
Nsg8
Nsg9
I6
sg10
S'worth'
p34
sg11
(i__main__
Node
p35
(dp36
g2
(i__main__
Node
p37
(dp38
g2
Nsg7
Nsg8
I-1
sg9
I8
sg10
Nsg11
Nsbsg7
Nsg8
Nsg9
I7
sg10
S'cloud'
p39
sg11
(i__main__
Node
p40
(dp41
g2
(i__main__
Node
p42
(dp43
g2
(i__main__
Node
p44
(dp45
g2
Nsg7
Nsg8
I1
sg9
I10
sg10
Nsg11
Nsbsg7
Nsg8
Nsg9
I9
sg10
S'world'
p46
sg11
(i__main__
Node
p47
(dp48
g2
Nsg7
Nsg8
I-1
sg9
I10
sg10
Nsg11
Nsbsbsg7
Nsg8
Nsg9
I8
sg10
S't'
p49
sg11
(i__main__
Node
p50
(dp51
g2
(i__main__
Node
p52
(dp53
g2
Nsg7
Nsg8
I-1
sg9
I10
sg10
Nsg11
Nsbsg7
Nsg8
Nsg9
I9
sg10
S'wind'
p54
sg11
(i__main__
Node
p55
(dp56
g2
(i__main__
Node
p57
(dp58
g2
Nsg7
Nsg8
I-1
sg9
I11
sg10
Nsg11
Nsbsg7
Nsg8
Nsg9
I10
sg10
S're'
p59
sg11
(i__main__
Node
p60
(dp61
g2
(i__main__
Node
p62
(dp63
g2
Nsg7
Nsg8
I-1
sg9
I12
sg10
Nsg11
Nsbsg7
Nsg8
Nsg9
I11
sg10
S'small'
p64
sg11
(i__main__
Node
p65
(dp66
g2
(i__main__
Node
p67
(dp68
g2
Nsg7
Nsg8
I-1
sg9
I13
sg10
Nsg11
Nsbsg7
Nsg8
Nsg9
I12
sg10
S'be'
p69
sg11
(i__main__
Node
p70
(dp71
g2
(i__main__
Node
p72
(dp73
g2
Nsg7
Nsg8
I-1
sg9
I14
sg10
Nsg11
Nsbsg7
Nsg8
Nsg9
I13
sg10
S'swirl'
p74
sg11
(i__main__
Node
p75
(dp76
g2
(i__main__
Node
p77
(dp78
g2
Nsg7
Nsg8
I-1
sg9
I15
sg10
Nsg11
Nsbsg7
Nsg8
Nsg9
I14
sg10
S'devast'
p79
sg11
(i__main__
Node
p80
(dp81
g2
Nsg7
Nsg8
I1
sg9
I15
sg10
Nsg11
Nsbsbsbsbsbsbsbsbsbsbsbsbsg7
Nsg8
Nsg9
I3
sg10
S'storm'
p82
sg11
(i__main__
Node
p83
(dp84
g2
(i__main__
Node
p85
(dp86
g2
Nsg7
Nsg8
I-1
sg9
I5
sg10
Nsg11
Nsbsg7
Nsg8
Nsg9
I4
sg10
S'alreadi'
p87
sg11
(i__main__
Node
p88
(dp89
g2
(i__main__
Node
p90
(dp91
g2
(i__main__
Node
p92
(dp93
g2
Nsg7
Nsg8
I1
sg9
I7
sg10
Nsg11
Nsbsg7
Nsg8
Nsg9
I6
sg10
S'drought'
p94
sg11
(i__main__
Node
p95
(dp96
g2
Nsg7
Nsg8
I-1
sg9
I7
sg10
Nsg11
Nsbsbsg7
Nsg8
Nsg9
I5
sg10
S'flood'
p97
sg11
(i__main__
Node
p98
(dp99
g2
(i__main__
Node
p100
(dp101
g2
(i__main__
Node
p102
(dp103
g2
Nsg7
Nsg8
I-1
sg9
I8
sg10
Nsg11
Nsbsg7
Nsg8
Nsg9
I7
sg10
S'here'
p104
sg11
(i__main__
Node
p105
(dp106
g2
(i__main__
Node
p107
(dp108
g2
Nsg7
Nsg8
I-1
sg9
I9
sg10
Nsg11
Nsbsg7
Nsg8
Nsg9
I8
sg10
S'until'
p109
sg11
(i__main__
Node
p110
(dp111
g2
Nsg7
Nsg8
I1
sg9
I9
sg10
Nsg11
Nsbsbsbsg7
Nsg8
Nsg9
I6
sg10
S'so'
p112
sg11
(i__main__
Node
p113
(dp114
g2
(i__main__
Node
p115
(dp116
g2
(i__main__
Node
p117
(dp118
g2
Nsg7
Nsg8
I1
sg9
I9
sg10
Nsg11
Nsbsg7
Nsg8
Nsg9
I8
sg10
S'see'
p119
sg11
(i__main__
Node
p120
(dp121
g2
Nsg7
Nsg8
I-1
sg9
I9
sg10
Nsg11
Nsbsbsg7
Nsg8
Nsg9
I7
sg10
S'outbreak'
p122
sg11
(i__main__
Node
p123
(dp124
g2
(i__main__
Node
p125
(dp126
g2
Nsg7
Nsg8
I-1
sg9
I9
sg10
Nsg11
Nsbsg7
Nsg8
Nsg9
I8
sg10
S'hospit'
p127
sg11
(i__main__
Node
p128
(dp129
g2
(i__main__
Node
p130
(dp131
g2
Nsg7
Nsg8
I-1
sg9
I10
sg10
Nsg11
Nsbsg7
Nsg8
Nsg9
I9
sg10
S'sign'
p132
sg11
(i__main__
Node
p133
(dp134
g2
(i__main__
Node
p135
(dp136
g2
Nsg7
Nsg8
I-1
sg9
I11
sg10
Nsg11
Nsbsg7
Nsg8
Nsg9
I10
sg10
S'citi'
p137
sg11
(i__main__
Node
p138
(dp139
g2
(i__main__
Node
p140
(dp141
g2
Nsg7
Nsg8
I-1
sg9
I12
sg10
Nsg11
Nsbsg7
Nsg8
Nsg9
I11
sg10
S'hawk'
p142
sg11
(i__main__
Node
p143
(dp144
g2
(i__main__
Node
p145
(dp146
g2
Nsg7
Nsg8
I-1
sg9
I13
sg10
Nsg11
Nsbsg7
Nsg8
Nsg9
I12
sg10
S'green'
p147
sg11
(i__main__
Node
p148
(dp149
g2
(i__main__
Node
p150
(dp151
g2
Nsg7
Nsg8
I-1
sg9
I14
sg10
Nsg11
Nsbsg7
Nsg8
Nsg9
I13
sg10
S'clear'
p152
sg11
(i__main__
Node
p153
(dp154
g2
(i__main__
Node
p155
(dp156
g2
Nsg7
Nsg8
I-1
sg9
I15
sg10
Nsg11
Nsbsg7
Nsg8
Nsg9
I14
sg10
S'gt'
p157
sg11
(i__main__
Node
p158
(dp159
g2
Nsg7
Nsg8
I1
sg9
I15
sg10
Nsg11
Nsbsbsbsbsbsbsbsbsbsbsbsbsbsbsg7
Nsg8
Nsg9
I1
sg10
S'tornado'
p160
sg11
(i__main__
Node
p161
(dp162
g2
(i__main__
Node
p163
(dp164
g2
Nsg7
Nsg8
I1
sg9
I3
sg10
Nsg11
Nsbsg7
Nsg8
Nsg9
I2
sg10
S'tornad'
p165
sg11
(i__main__
Node
p166
(dp167
g2
(i__main__
Node
p168
(dp169
g2
(i__main__
Node
p170
(dp171
g2
Nsg7
Nsg8
I-1
sg9
I5
sg10
Nsg11
Nsbsg7
Nsg8
Nsg9
I4
sg10
g82
sg11
(i__main__
Node
p172
(dp173
g2
Nsg7
Nsg8
I1
sg9
I5
sg10
Nsg11
Nsbsbsg7
Nsg8
Nsg9
I3
sg10
S'twister'
p174
sg11
(i__main__
Node
p175
(dp176
g2
(i__main__
Node
p177
(dp178
g2
Nsg7
Nsg8
I1
sg9
I5
sg10
Nsg11
Nsbsg7
Nsg8
Nsg9
I4
sg10
S'oklahoman'
p179
sg11
(i__main__
Node
p180
(dp181
g2
(i__main__
Node
p182
(dp183
g2
Nsg7
Nsg8
I1
sg9
I6
sg10
Nsg11
Nsbsg7
Nsg8
Nsg9
I5
sg10
S'wizardofoz'
p184
sg11
(i__main__
Node
p185
(dp186
g2
(i__main__
Node
p187
(dp188
g2
Nsg7
Nsg8
I1
sg9
I7
sg10
Nsg11
Nsbsg7
Nsg8
Nsg9
I6
sg10
S'cinderella'
p189
sg11
(i__main__
Node
p190
(dp191
g2
(i__main__
Node
p192
(dp193
g2
(i__main__
Node
p194
(dp195
g2
Nsg7
Nsg8
I1
sg9
I9
sg10
Nsg11
Nsbsg7
Nsg8
Nsg9
I8
sg10
g119
sg11
(i__main__
Node
p196
(dp197
g2
Nsg7
Nsg8
I-1
sg9
I9
sg10
Nsg11
Nsbsbsg7
Nsg8
Nsg9
I7
sg10
S'ch'
p198
sg11
(i__main__
Node
p199
(dp200
g2
(i__main__
Node
p201
(dp202
g2
(i__main__
Node
p203
(dp204
g2
Nsg7
Nsg8
I-1
sg9
I10
sg10
Nsg11
Nsbsg7
Nsg8
Nsg9
I9
sg10
g109
sg11
(i__main__
Node
p205
(dp206
g2
Nsg7
Nsg8
I1
sg9
I10
sg10
Nsg11
Nsbsbsg7
Nsg8
Nsg9
I8
sg10
S'10pm'
p207
sg11
(i__main__
Node
p208
(dp209
g2
Nsg7
Nsg8
I-1
sg9
I9
sg10
Nsg11
Nsbsbsbsbsbsbsbsbsb.