(i__main__
Node
p0
(dp1
S'right'
p2
(i__main__
Node
p3
(dp4
g2
(i__main__
Node
p5
(dp6
g2
(i__main__
Node
p7
(dp8
g2
(i__main__
Node
p9
(dp10
g2
NsS'parser'
p11
NsS'label'
p12
I-1
sS'depth'
p13
I5
sS'criterion'
p14
NsS'left'
p15
Nsbsg11
Nsg12
Nsg13
I4
sg14
S'cold'
p16
sg15
(i__main__
Node
p17
(dp18
g2
(i__main__
Node
p19
(dp20
g2
Nsg11
Nsg12
I-1
sg13
I6
sg14
Nsg15
Nsbsg11
Nsg12
Nsg13
I5
sg14
S'love'
p21
sg15
(i__main__
Node
p22
(dp23
g2
(i__main__
Node
p24
(dp25
g2
Nsg11
Nsg12
I-1
sg13
I7
sg14
Nsg15
Nsbsg11
Nsg12
Nsg13
I6
sg14
S'sad'
p26
sg15
(i__main__
Node
p27
(dp28
g2
(i__main__
Node
p29
(dp30
g2
Nsg11
Nsg12
I-1
sg13
I8
sg14
Nsg15
Nsbsg11
Nsg12
Nsg13
I7
sg14
S'do'
p31
sg15
(i__main__
Node
p32
(dp33
g2
(i__main__
Node
p34
(dp35
g2
Nsg11
Nsg12
I-1
sg13
I9
sg14
Nsg15
Nsbsg11
Nsg12
Nsg13
I8
sg14
S'overreact'
p36
sg15
(i__main__
Node
p37
(dp38
g2
(i__main__
Node
p39
(dp40
g2
Nsg11
Nsg12
I-1
sg13
I10
sg14
Nsg15
Nsbsg11
Nsg12
Nsg13
I9
sg14
S'enough'
p41
sg15
(i__main__
Node
p42
(dp43
g2
Nsg11
Nsg12
I1
sg13
I10
sg14
Nsg15
Nsbsbsbsbsbsbsbsg11
Nsg12
Nsg13
I3
sg14
S'mention'
p44
sg15
(i__main__
Node
p45
(dp46
g2
(i__main__
Node
p47
(dp48
g2
(i__main__
Node
p49
(dp50
g2
Nsg11
Nsg12
I1
sg13
I6
sg14
Nsg15
Nsbsg11
Nsg12
Nsg13
I5
sg14
S'notic'
p51
sg15
(i__main__
Node
p52
(dp53
g2
(i__main__
Node
p54
(dp55
g2
Nsg11
Nsg12
I1
sg13
I7
sg14
Nsg15
Nsbsg11
Nsg12
Nsg13
I6
sg14
S'smh'
p56
sg15
(i__main__
Node
p57
(dp58
g2
Nsg11
Nsg12
I-1
sg13
I7
sg14
Nsg15
Nsbsbsbsg11
Nsg12
Nsg13
I4
sg14
S'even'
p59
sg15
(i__main__
Node
p60
(dp61
g2
(i__main__
Node
p62
(dp63
g2
Nsg11
Nsg12
I-1
sg13
I6
sg14
Nsg15
Nsbsg11
Nsg12
Nsg13
I5
sg14
S'chilli'
p64
sg15
(i__main__
Node
p65
(dp66
g2
(i__main__
Node
p67
(dp68
g2
Nsg11
Nsg12
I-1
sg13
I7
sg14
Nsg15
Nsbsg11
Nsg12
Nsg13
I6
sg14
S'break'
p69
sg15
(i__main__
Node
p70
(dp71
g2
(i__main__
Node
p72
(dp73
g2
Nsg11
Nsg12
I-1
sg13
I8
sg14
Nsg15
Nsbsg11
Nsg12
Nsg13
I7
sg14
S'cocoa'
p74
sg15
(i__main__
Node
p75
(dp76
g2
(i__main__
Node
p77
(dp78
g2
Nsg11
Nsg12
I-1
sg13
I9
sg14
Nsg15
Nsbsg11
Nsg12
Nsg13
I8
sg14
S'smokey'
p79
sg15
(i__main__
Node
p80
(dp81
g2
Nsg11
Nsg12
I1
sg13
I9
sg14
Nsg15
Nsbsbsbsbsbsbsbsg11
Nsg12
Nsg13
I2
sg14
S'outsid'
p82
sg15
(i__main__
Node
p83
(dp84
g2
(i__main__
Node
p85
(dp86
g2
Nsg11
Nsg12
I-1
sg13
I4
sg14
Nsg15
Nsbsg11
Nsg12
Nsg13
I3
sg14
S'chocol'
p87
sg15
(i__main__
Node
p88
(dp89
g2
(i__main__
Node
p90
(dp91
g2
Nsg11
Nsg12
I1
sg13
I5
sg14
Nsg15
Nsbsg11
Nsg12
Nsg13
I4
sg14
S'hell'
p92
sg15
(i__main__
Node
p93
(dp94
g2
(i__main__
Node
p95
(dp96
g2
Nsg11
Nsg12
I-1
sg13
I6
sg14
Nsg15
Nsbsg11
Nsg12
Nsg13
I5
sg14
S'cuz'
p97
sg15
(i__main__
Node
p98
(dp99
g2
(i__main__
Node
p100
(dp101
g2
(i__main__
Node
p102
(dp103
g2
Nsg11
Nsg12
I-1
sg13
I8
sg14
Nsg15
Nsbsg11
Nsg12
Nsg13
I7
sg14
S'drop'
p104
sg15
(i__main__
Node
p105
(dp106
g2
(i__main__
Node
p107
(dp108
g2
(i__main__
Node
p109
(dp110
g2
Nsg11
Nsg12
I-1
sg13
I10
sg14
Nsg15
Nsbsg11
Nsg12
Nsg13
I9
sg14
S'roll'
p111
sg15
(i__main__
Node
p112
(dp113
g2
(i__main__
Node
p114
(dp115
g2
Nsg11
Nsg12
I-1
sg13
I11
sg14
Nsg15
Nsbsg11
Nsg12
Nsg13
I10
sg14
S'everybodi'
p116
sg15
(i__main__
Node
p117
(dp118
g2
Nsg11
Nsg12
I1
sg13
I11
sg14
Nsg15
Nsbsbsbsg11
Nsg12
Nsg13
I8
sg14
S'out'
p119
sg15
(i__main__
Node
p120
(dp121
g2
(i__main__
Node
p122
(dp123
g2
(i__main__
Node
p124
(dp125
g2
Nsg11
Nsg12
I1
sg13
I11
sg14
Nsg15
Nsbsg11
Nsg12
Nsg13
I10
sg14
S'ohio'
p126
sg15
(i__main__
Node
p127
(dp128
g2
Nsg11
Nsg12
I-1
sg13
I11
sg14
Nsg15
Nsbsbsg11
Nsg12
Nsg13
I9
sg14
S'nice'
p129
sg15
(i__main__
Node
p130
(dp131
g2
(i__main__
Node
p132
(dp133
g2
Nsg11
Nsg12
I-1
sg13
I11
sg14
Nsg15
Nsbsg11
Nsg12
Nsg13
I10
sg14
S'fresh'
p134
sg15
(i__main__
Node
p135
(dp136
g2
(i__main__
Node
p137
(dp138
g2
Nsg11
Nsg12
I-1
sg13
I12
sg14
Nsg15
Nsbsg11
Nsg12
Nsg13
I11
sg14
S'night'
p139
sg15
(i__main__
Node
p140
(dp141
g2
(i__main__
Node
p142
(dp143
g2
Nsg11
Nsg12
I-1
sg13
I13
sg14
Nsg15
Nsbsg11
Nsg12
Nsg13
I12
sg14
S'im'
p144
sg15
(i__main__
Node
p145
(dp146
g2
Nsg11
Nsg12
I1
sg13
I13
sg14
Nsg15
Nsbsbsbsbsbsbsbsg11
Nsg12
Nsg13
I6
sg14
S'it'
p147
sg15
(i__main__
Node
p148
(dp149
g2
(i__main__
Node
p150
(dp151
g2
Nsg11
Nsg12
I-1
sg13
I8
sg14
Nsg15
Nsbsg11
Nsg12
Nsg13
I7
sg14
S'beauti'
p152
sg15
(i__main__
Node
p153
(dp154
g2
(i__main__
Node
p155
(dp156
g2
(i__main__
Node
p157
(dp158
g2
Nsg11
Nsg12
I1
sg13
I10
sg14
Nsg15
Nsbsg11
Nsg12
Nsg13
I9
sg14
S'sunni'
p159
sg15
(i__main__
Node
p160
(dp161
g2
Nsg11
Nsg12
I-1
sg13
I10
sg14
Nsg15
Nsbsbsg11
Nsg12
Nsg13
I8
sg14
S'raini'
p162
sg15
(i__main__
Node
p163
(dp164
g2
(i__main__
Node
p165
(dp166
g2
(i__main__
Node
p167
(dp168
g2
Nsg11
Nsg12
I-1
sg13
I11
sg14
Nsg15
Nsbsg11
Nsg12
Nsg13
I10
sg14
S'told'
p169
sg15
(i__main__
Node
p170
(dp171
g2
(i__main__
Node
p172
(dp173
g2
Nsg11
Nsg12
I1
sg13
I12
sg14
Nsg15
Nsbsg11
Nsg12
Nsg13
I11
sg14
S'rt'
p174
sg15
(i__main__
Node
p175
(dp176
g2
(i__main__
Node
p177
(dp178
g2
Nsg11
Nsg12
I1
sg13
I13
sg14
Nsg15
Nsbsg11
Nsg12
Nsg13
I12
sg14
S'old'
p179
sg15
(i__main__
Node
p180
(dp181
g2
(i__main__
Node
p182
(dp183
g2
Nsg11
Nsg12
I1
sg13
I14
sg14
Nsg15
Nsbsg11
Nsg12
Nsg13
I13
sg14
S'one'
p184
sg15
(i__main__
Node
p185
(dp186
g2
(i__main__
Node
p187
(dp188
g2
Nsg11
Nsg12
I1
sg13
I15
sg14
Nsg15
Nsbsg11
Nsg12
Nsg13
I14
sg14
S'her'
p189
sg15
(i__main__
Node
p190
(dp191
g2
Nsg11
Nsg12
I-1
sg13
I15
sg14
Nsg15
Nsbsbsbsbsbsbsg11
Nsg12
Nsg13
I9
sg14
S'check'
p192
sg15
(i__main__
Node
p193
(dp194
g2
(i__main__
Node
p195
(dp196
g2
Nsg11
Nsg12
I-1
sg13
I11
sg14
Nsg15
Nsbsg11
Nsg12
Nsg13
I10
sg14
S'p'
p197
sg15
(i__main__
Node
p198
(dp199
g2
(i__main__
Node
p200
(dp201
g2
Nsg11
Nsg12
I-1
sg13
I12
sg14
Nsg15
Nsbsg11
Nsg12
Nsg13
I11
sg14
S'alway'
p202
sg15
(i__main__
Node
p203
(dp204
g2
(i__main__
Node
p205
(dp206
g2
(i__main__
Node
p207
(dp208
g2
Nsg11
Nsg12
I1
sg13
I14
sg14
Nsg15
Nsbsg11
Nsg12
Nsg13
I13
sg14
S'cougar'
p209
sg15
(i__main__
Node
p210
(dp211
g2
(i__main__
Node
p212
(dp213
g2
Nsg11
Nsg12
I1
sg13
I15
sg14
Nsg15
Nsbsg11
Nsg12
Nsg13
I14
sg14
S'summer'
p214
sg15
(i__main__
Node
p215
(dp216
g2
Nsg11
Nsg12
I-1
sg13
I15
sg14
Nsg15
Nsbsbsbsg11
Nsg12
Nsg13
I12
sg14
S'perfect'
p217
sg15
(i__main__
Node
p218
(dp219
g2
(i__main__
Node
p220
(dp221
g2
Nsg11
Nsg12
I-1
sg13
I14
sg14
Nsg15
Nsbsg11
Nsg12
Nsg13
I13
sg14
S'first'
p222
sg15
(i__main__
Node
p223
(dp224
g2
(i__main__
Node
p225
(dp226
g2
Nsg11
Nsg12
I-1
sg13
I15
sg14
Nsg15
Nsbsg11
Nsg12
Nsg13
I14
sg14
S'let'
p227
sg15
(i__main__
Node
p228
(dp229
g2
Nsg11
Nsg12
I1
sg13
I15
sg14
Nsg15
Nsbsbsbsbsbsbsbsbsbsbsbsbsbsbsg11
Nsg12
Nsg13
I1
sg14
S'hot'
p230
sg15
(i__main__
Node
p231
(dp232
g2
(i__main__
Node
p233
(dp234
g2
(i__main__
Node
p235
(dp236
g2
(i__main__
Node
p237
(dp238
g2
Nsg11
Nsg12
I-1
sg13
I5
sg14
Nsg15
Nsbsg11
Nsg12
Nsg13
I4
sg14
S'time'
p239
sg15
(i__main__
Node
p240
(dp241
g2
(i__main__
Node
p242
(dp243
g2
Nsg11
Nsg12
I1
sg13
I6
sg14
Nsg15
Nsbsg11
Nsg12
Nsg13
I5
sg14
S'i'
p244
sg15
(i__main__
Node
p245
(dp246
g2
(i__main__
Node
p247
(dp248
g2
Nsg11
Nsg12
I-1
sg13
I7
sg14
Nsg15
Nsbsg11
Nsg12
Nsg13
I6
sg14
S'heat'
p249
sg15
(i__main__
Node
p250
(dp251
g2
(i__main__
Node
p252
(dp253
g2
Nsg11
Nsg12
I-1
sg13
I8
sg14
Nsg15
Nsbsg11
Nsg12
Nsg13
I7
sg14
S'94'
p254
sg15
(i__main__
Node
p255
(dp256
g2
(i__main__
Node
p257
(dp258
g2
Nsg11
Nsg12
I-1
sg13
I9
sg14
Nsg15
Nsbsg11
Nsg12
Nsg13
I8
sg14
S'best'
p259
sg15
(i__main__
Node
p260
(dp261
g2
(i__main__
Node
p262
(dp263
g2
Nsg11
Nsg12
I-1
sg13
I10
sg14
Nsg15
Nsbsg11
Nsg12
Nsg13
I9
sg14
S'condit'
p264
sg15
(i__main__
Node
p265
(dp266
g2
(i__main__
Node
p267
(dp268
g2
Nsg11
Nsg12
I-1
sg13
I11
sg14
Nsg15
Nsbsg11
Nsg12
Nsg13
I10
sg14
S'anoth'
p269
sg15
(i__main__
Node
p270
(dp271
g2
(i__main__
Node
p272
(dp273
g2
Nsg11
Nsg12
I-1
sg13
I12
sg14
Nsg15
Nsbsg11
Nsg12
Nsg13
I11
sg14
S'humid'
p274
sg15
(i__main__
Node
p275
(dp276
g2
Nsg11
Nsg12
I1
sg13
I12
sg14
Nsg15
Nsbsbsbsbsbsbsbsbsbsg11
Nsg12
Nsg13
I3
sg14
S'100'
p277
sg15
(i__main__
Node
p278
(dp279
g2
(i__main__
Node
p280
(dp281
g2
(i__main__
Node
p282
(dp283
g2
Nsg11
Nsg12
I1
sg13
I6
sg14
Nsg15
Nsbsg11
Nsg12
Nsg13
I5
sg14
S'have'
p284
sg15
(i__main__
Node
p285
(dp286
g2
(i__main__
Node
p287
(dp288
g2
Nsg11
Nsg12
I-1
sg13
I7
sg14
Nsg15
Nsbsg11
Nsg12
Nsg13
I6
sg14
S'after'
p289
sg15
(i__main__
Node
p290
(dp291
g2
(i__main__
Node
p292
(dp293
g2
Nsg11
Nsg12
I-1
sg13
I8
sg14
Nsg15
Nsbsg11
Nsg12
Nsg13
I7
sg14
g274
sg15
(i__main__
Node
p294
(dp295
g2
(i__main__
Node
p296
(dp297
g2
Nsg11
Nsg12
I-1
sg13
I9
sg14
Nsg15
Nsbsg11
Nsg12
Nsg13
I8
sg14
g147
sg15
(i__main__
Node
p298
(dp299
g2
(i__main__
Node
p300
(dp301
g2
(i__main__
Node
p302
(dp303
g2
Nsg11
Nsg12
I-1
sg13
I11
sg14
Nsg15
Nsbsg11
Nsg12
Nsg13
I10
sg14
S'like'
p304
sg15
(i__main__
Node
p305
(dp306
g2
(i__main__
Node
p307
(dp308
g2
Nsg11
Nsg12
I-1
sg13
I12
sg14
Nsg15
Nsbsg11
Nsg12
Nsg13
I11
sg14
S'current'
p309
sg15
(i__main__
Node
p310
(dp311
g2
Nsg11
Nsg12
I1
sg13
I12
sg14
Nsg15
Nsbsbsbsg11
Nsg12
Nsg13
I9
sg14
S's'
p312
sg15
(i__main__
Node
p313
(dp314
g2
(i__main__
Node
p315
(dp316
g2
Nsg11
Nsg12
I-1
sg13
I11
sg14
Nsg15
Nsbsg11
Nsg12
Nsg13
I10
sg14
S'can'
p317
sg15
(i__main__
Node
p318
(dp319
g2
(i__main__
Node
p320
(dp321
g2
Nsg11
Nsg12
I-1
sg13
I12
sg14
Nsg15
Nsbsg11
Nsg12
Nsg13
I11
sg14
S'weekend'
p322
sg15
(i__main__
Node
p323
(dp324
g2
(i__main__
Node
p325
(dp326
g2
Nsg11
Nsg12
I-1
sg13
I13
sg14
Nsg15
Nsbsg11
Nsg12
Nsg13
I12
sg14
S'good'
p327
sg15
(i__main__
Node
p328
(dp329
g2
(i__main__
Node
p330
(dp331
g2
Nsg11
Nsg12
I-1
sg13
I14
sg14
Nsg15
Nsbsg11
Nsg12
Nsg13
I13
sg14
S'snow'
p332
sg15
(i__main__
Node
p333
(dp334
g2
(i__main__
Node
p335
(dp336
g2
Nsg11
Nsg12
I1
sg13
I15
sg14
Nsg15
Nsbsg11
Nsg12
Nsg13
I14
sg14
g44
sg15
(i__main__
Node
p337
(dp338
g2
Nsg11
Nsg12
I1
sg13
I15
sg14
Nsg15
Nsbsbsbsbsbsbsbsbsbsbsbsg11
Nsg12
Nsg13
I4
sg14
S'90'
p339
sg15
(i__main__
Node
p340
(dp341
g2
(i__main__
Node
p342
(dp343
g2
(i__main__
Node
p344
(dp345
g2
Nsg11
Nsg12
I-1
sg13
I7
sg14
Nsg15
Nsbsg11
Nsg12
Nsg13
I6
sg14
S'weather'
p346
sg15
(i__main__
Node
p347
(dp348
g2
(i__main__
Node
p349
(dp350
g2
Nsg11
Nsg12
I1
sg13
I8
sg14
Nsg15
Nsbsg11
Nsg12
Nsg13
I7
sg14
S'm'
p351
sg15
(i__main__
Node
p352
(dp353
g2
(i__main__
Node
p354
(dp355
g2
Nsg11
Nsg12
I-1
sg13
I9
sg14
Nsg15
Nsbsg11
Nsg12
Nsg13
I8
sg14
g327
sg15
(i__main__
Node
p356
(dp357
g2
(i__main__
Node
p358
(dp359
g2
(i__main__
Node
p360
(dp361
g2
Nsg11
Nsg12
I-1
sg13
I11
sg14
Nsg15
Nsbsg11
Nsg12
Nsg13
I10
sg14
S'fml'
p362
sg15
(i__main__
Node
p363
(dp364
g2
Nsg11
Nsg12
I1
sg13
I11
sg14
Nsg15
Nsbsbsg11
Nsg12
Nsg13
I9
sg14
g174
sg15
(i__main__
Node
p365
(dp366
g2
(i__main__
Node
p367
(dp368
g2
Nsg11
Nsg12
I1
sg13
I11
sg14
Nsg15
Nsbsg11
Nsg12
Nsg13
I10
sg14
g312
sg15
(i__main__
Node
p369
(dp370
g2
(i__main__
Node
p371
(dp372
g2
Nsg11
Nsg12
I1
sg13
I12
sg14
Nsg15
Nsbsg11
Nsg12
Nsg13
I11
sg14
S'104'
p373
sg15
(i__main__
Node
p374
(dp375
g2
(i__main__
Node
p376
(dp377
g2
Nsg11
Nsg12
I1
sg13
I13
sg14
Nsg15
Nsbsg11
Nsg12
Nsg13
I12
sg14
S'gon'
p378
sg15
(i__main__
Node
p379
(dp380
g2
(i__main__
Node
p381
(dp382
g2
Nsg11
Nsg12
I-1
sg13
I14
sg14
Nsg15
Nsbsg11
Nsg12
Nsg13
I13
sg14
g214
sg15
(i__main__
Node
p383
(dp384
g2
(i__main__
Node
p385
(dp386
g2
Nsg11
Nsg12
I1
sg13
I15
sg14
Nsg15
Nsbsg11
Nsg12
Nsg13
I14
sg14
S'still'
p387
sg15
(i__main__
Node
p388
(dp389
g2
Nsg11
Nsg12
I-1
sg13
I15
sg14
Nsg15
Nsbsbsbsbsbsbsbsbsbsbsg11
Nsg12
Nsg13
I5
sg14
g147
sg15
(i__main__
Node
p390
(dp391
g2
(i__main__
Node
p392
(dp393
g2
Nsg11
Nsg12
I-1
sg13
I7
sg14
Nsg15
Nsbsg11
Nsg12
Nsg13
I6
sg14
g159
sg15
(i__main__
Node
p394
(dp395
g2
(i__main__
Node
p396
(dp397
g2
Nsg11
Nsg12
I-1
sg13
I8
sg14
Nsg15
Nsbsg11
Nsg12
Nsg13
I7
sg14
S'rain'
p398
sg15
(i__main__
Node
p399
(dp400
g2
(i__main__
Node
p401
(dp402
g2
Nsg11
Nsg12
I1
sg13
I9
sg14
Nsg15
Nsbsg11
Nsg12
Nsg13
I8
sg14
S'102'
p403
sg15
(i__main__
Node
p404
(dp405
g2
(i__main__
Node
p406
(dp407
g2
Nsg11
Nsg12
I1
sg13
I10
sg14
Nsg15
Nsbsg11
Nsg12
Nsg13
I9
sg14
S'apart'
p408
sg15
(i__main__
Node
p409
(dp410
g2
(i__main__
Node
p411
(dp412
g2
(i__main__
Node
p413
(dp414
g2
Nsg11
Nsg12
I-1
sg13
I12
sg14
Nsg15
Nsbsg11
Nsg12
Nsg13
I11
sg14
S'dnt'
p415
sg15
(i__main__
Node
p416
(dp417
g2
(i__main__
Node
p418
(dp419
g2
Nsg11
Nsg12
I-1
sg13
I13
sg14
Nsg15
Nsbsg11
Nsg12
Nsg13
I12
sg14
g174
sg15
(i__main__
Node
p420
(dp421
g2
Nsg11
Nsg12
I1
sg13
I13
sg14
Nsg15
Nsbsbsbsg11
Nsg12
Nsg13
I10
sg14
S'air'
p422
sg15
(i__main__
Node
p423
(dp424
g2
(i__main__
Node
p425
(dp426
g2
Nsg11
Nsg12
I1
sg13
I12
sg14
Nsg15
Nsbsg11
Nsg12
Nsg13
I11
sg14
S'sioux'
p427
sg15
(i__main__
Node
p428
(dp429
g2
(i__main__
Node
p430
(dp431
g2
Nsg11
Nsg12
I1
sg13
I13
sg14
Nsg15
Nsbsg11
Nsg12
Nsg13
I12
sg14
g362
sg15
(i__main__
Node
p432
(dp433
g2
(i__main__
Node
p434
(dp435
g2
Nsg11
Nsg12
I1
sg13
I14
sg14
Nsg15
Nsbsg11
Nsg12
Nsg13
I13
sg14
S'ain'
p436
sg15
(i__main__
Node
p437
(dp438
g2
(i__main__
Node
p439
(dp440
g2
Nsg11
Nsg12
I-1
sg13
I15
sg14
Nsg15
Nsbsg11
Nsg12
Nsg13
I14
sg14
S'you'
p441
sg15
(i__main__
Node
p442
(dp443
g2
Nsg11
Nsg12
I-1
sg13
I15
sg14
Nsg15
Nsbsbsbsbsbsbsbsbsbsbsbsbsbsg11
Nsg12
Nsg13
I2
sg14
S'degre'
p444
sg15
(i__main__
Node
p445
(dp446
g2
(i__main__
Node
p447
(dp448
g2
(i__main__
Node
p449
(dp450
g2
(i__main__
Node
p451
(dp452
g2
Nsg11
Nsg12
I-1
sg13
I6
sg14
Nsg15
Nsbsg11
Nsg12
Nsg13
I5
sg14
g174
sg15
(i__main__
Node
p453
(dp454
g2
(i__main__
Node
p455
(dp456
g2
Nsg11
Nsg12
I-1
sg13
I7
sg14
Nsg15
Nsbsg11
Nsg12
Nsg13
I6
sg14
S'week'
p457
sg15
(i__main__
Node
p458
(dp459
g2
(i__main__
Node
p460
(dp461
g2
Nsg11
Nsg12
I-1
sg13
I8
sg14
Nsg15
Nsbsg11
Nsg12
Nsg13
I7
sg14
S'noth'
p462
sg15
(i__main__
Node
p463
(dp464
g2
(i__main__
Node
p465
(dp466
g2
Nsg11
Nsg12
I-1
sg13
I9
sg14
Nsg15
Nsbsg11
Nsg12
Nsg13
I8
sg14
S'move'
p467
sg15
(i__main__
Node
p468
(dp469
g2
Nsg11
Nsg12
I1
sg13
I9
sg14
Nsg15
Nsbsbsbsbsbsg11
Nsg12
Nsg13
I4
sg14
g274
sg15
(i__main__
Node
p470
(dp471
g2
(i__main__
Node
p472
(dp473
g2
(i__main__
Node
p474
(dp475
g2
Nsg11
Nsg12
I-1
sg13
I7
sg14
Nsg15
Nsbsg11
Nsg12
Nsg13
I6
sg14
g174
sg15
(i__main__
Node
p476
(dp477
g2
(i__main__
Node
p478
(dp479
g2
Nsg11
Nsg12
I-1
sg13
I8
sg14
Nsg15
Nsbsg11
Nsg12
Nsg13
I7
sg14
g457
sg15
(i__main__
Node
p480
(dp481
g2
Nsg11
Nsg12
I1
sg13
I8
sg14
Nsg15
Nsbsbsbsg11
Nsg12
Nsg13
I5
sg14
S'wave'
p482
sg15
(i__main__
Node
p483
(dp484
g2
(i__main__
Node
p485
(dp486
g2
Nsg11
Nsg12
I1
sg13
I7
sg14
Nsg15
Nsbsg11
Nsg12
Nsg13
I6
sg14
S'back'
p487
sg15
(i__main__
Node
p488
(dp489
g2
(i__main__
Node
p490
(dp491
g2
Nsg11
Nsg12
I1
sg13
I8
sg14
Nsg15
Nsbsg11
Nsg12
Nsg13
I7
sg14
S'ad'
p492
sg15
(i__main__
Node
p493
(dp494
g2
(i__main__
Node
p495
(dp496
g2
Nsg11
Nsg12
I1
sg13
I9
sg14
Nsg15
Nsbsg11
Nsg12
Nsg13
I8
sg14
S'th'
p497
sg15
(i__main__
Node
p498
(dp499
g2
(i__main__
Node
p500
(dp501
g2
Nsg11
Nsg12
I1
sg13
I10
sg14
Nsg15
Nsbsg11
Nsg12
Nsg13
I9
sg14
S'etc'
p502
sg15
(i__main__
Node
p503
(dp504
g2
(i__main__
Node
p505
(dp506
g2
Nsg11
Nsg12
I1
sg13
I11
sg14
Nsg15
Nsbsg11
Nsg12
Nsg13
I10
sg14
S'than'
p507
sg15
(i__main__
Node
p508
(dp509
g2
(i__main__
Node
p510
(dp511
g2
Nsg11
Nsg12
I1
sg13
I12
sg14
Nsg15
Nsbsg11
Nsg12
Nsg13
I11
sg14
S'7'
p512
sg15
(i__main__
Node
p513
(dp514
g2
(i__main__
Node
p515
(dp516
g2
Nsg11
Nsg12
I1
sg13
I13
sg14
Nsg15
Nsbsg11
Nsg12
Nsg13
I12
sg14
S'think'
p517
sg15
(i__main__
Node
p518
(dp519
g2
Nsg11
Nsg12
I-1
sg13
I13
sg14
Nsg15
Nsbsbsbsbsbsbsbsbsbsbsg11
Nsg12
Nsg13
I3
sg14
g249
sg15
(i__main__
Node
p520
(dp521
g2
(i__main__
Node
p522
(dp523
g2
(i__main__
Node
p524
(dp525
g2
Nsg11
Nsg12
I-1
sg13
I6
sg14
Nsg15
Nsbsg11
Nsg12
Nsg13
I5
sg14
g259
sg15
(i__main__
Node
p526
(dp527
g2
(i__main__
Node
p528
(dp529
g2
Nsg11
Nsg12
I-1
sg13
I7
sg14
Nsg15
Nsbsg11
Nsg12
Nsg13
I6
sg14
S'kno'
p530
sg15
(i__main__
Node
p531
(dp532
g2
(i__main__
Node
p533
(dp534
g2
Nsg11
Nsg12
I-1
sg13
I8
sg14
Nsg15
Nsbsg11
Nsg12
Nsg13
I7
sg14
g16
sg15
(i__main__
Node
p535
(dp536
g2
(i__main__
Node
p537
(dp538
g2
Nsg11
Nsg12
I1
sg13
I9
sg14
Nsg15
Nsbsg11
Nsg12
Nsg13
I8
sg14
g44
sg15
(i__main__
Node
p539
(dp540
g2
(i__main__
Node
p541
(dp542
g2
Nsg11
Nsg12
I-1
sg13
I10
sg14
Nsg15
Nsbsg11
Nsg12
Nsg13
I9
sg14
S'lebron'
p543
sg15
(i__main__
Node
p544
(dp545
g2
(i__main__
Node
p546
(dp547
g2
Nsg11
Nsg12
I1
sg13
I11
sg14
Nsg15
Nsbsg11
Nsg12
Nsg13
I10
sg14
g312
sg15
(i__main__
Node
p548
(dp549
g2
(i__main__
Node
p550
(dp551
g2
Nsg11
Nsg12
I1
sg13
I12
sg14
Nsg15
Nsbsg11
Nsg12
Nsg13
I11
sg14
S'may'
p552
sg15
(i__main__
Node
p553
(dp554
g2
(i__main__
Node
p555
(dp556
g2
Nsg11
Nsg12
I1
sg13
I13
sg14
Nsg15
Nsbsg11
Nsg12
Nsg13
I12
sg14
S'music'
p557
sg15
(i__main__
Node
p558
(dp559
g2
(i__main__
Node
p560
(dp561
g2
Nsg11
Nsg12
I1
sg13
I14
sg14
Nsg15
Nsbsg11
Nsg12
Nsg13
I13
sg14
S'team'
p562
sg15
(i__main__
Node
p563
(dp564
g2
(i__main__
Node
p565
(dp566
g2
Nsg11
Nsg12
I1
sg13
I15
sg14
Nsg15
Nsbsg11
Nsg12
Nsg13
I14
sg14
S'woohoo'
p567
sg15
(i__main__
Node
p568
(dp569
g2
Nsg11
Nsg12
I-1
sg13
I15
sg14
Nsg15
Nsbsbsbsbsbsbsbsbsbsbsbsg11
Nsg12
Nsg13
I4
sg14
S'heatwav'
p570
sg15
(i__main__
Node
p571
(dp572
g2
(i__main__
Node
p573
(dp574
g2
(i__main__
Node
p575
(dp576
g2
(i__main__
Node
p577
(dp578
g2
(i__main__
Node
p579
(dp580
g2
Nsg11
Nsg12
I-1
sg13
I9
sg14
Nsg15
Nsbsg11
Nsg12
Nsg13
I8
sg14
g159
sg15
(i__main__
Node
p581
(dp582
g2
Nsg11
Nsg12
I1
sg13
I9
sg14
Nsg15
Nsbsbsg11
Nsg12
Nsg13
I7
sg14
S'bring'
p583
sg15
(i__main__
Node
p584
(dp585
g2
(i__main__
Node
p586
(dp587
g2
Nsg11
Nsg12
I1
sg13
I9
sg14
Nsg15
Nsbsg11
Nsg12
Nsg13
I8
sg14
S'prefer'
p588
sg15
(i__main__
Node
p589
(dp590
g2
(i__main__
Node
p591
(dp592
g2
Nsg11
Nsg12
I1
sg13
I10
sg14
Nsg15
Nsbsg11
Nsg12
Nsg13
I9
sg14
S'natur'
p593
sg15
(i__main__
Node
p594
(dp595
g2
(i__main__
Node
p596
(dp597
g2
Nsg11
Nsg12
I1
sg13
I11
sg14
Nsg15
Nsbsg11
Nsg12
Nsg13
I10
sg14
S'whenev'
p598
sg15
(i__main__
Node
p599
(dp600
g2
(i__main__
Node
p601
(dp602
g2
Nsg11
Nsg12
I1
sg13
I12
sg14
Nsg15
Nsbsg11
Nsg12
Nsg13
I11
sg14
S'record'
p603
sg15
(i__main__
Node
p604
(dp605
g2
(i__main__
Node
p606
(dp607
g2
(i__main__
Node
p608
(dp609
g2
Nsg11
Nsg12
I-1
sg13
I14
sg14
Nsg15
Nsbsg11
Nsg12
Nsg13
I13
sg14
S'some'
p610
sg15
(i__main__
Node
p611
(dp612
g2
Nsg11
Nsg12
I1
sg13
I14
sg14
Nsg15
Nsbsbsg11
Nsg12
Nsg13
I12
sg14
S'girl'
p613
sg15
(i__main__
Node
p614
(dp615
g2
(i__main__
Node
p616
(dp617
g2
Nsg11
Nsg12
I1
sg13
I14
sg14
Nsg15
Nsbsg11
Nsg12
Nsg13
I13
sg14
S'men'
p618
sg15
(i__main__
Node
p619
(dp620
g2
(i__main__
Node
p621
(dp622
g2
Nsg11
Nsg12
I1
sg13
I15
sg14
Nsg15
Nsbsg11
Nsg12
Nsg13
I14
sg14
S'gloomi'
p623
sg15
(i__main__
Node
p624
(dp625
g2
Nsg11
Nsg12
I-1
sg13
I15
sg14
Nsg15
Nsbsbsbsbsbsbsbsbsbsg11
Nsg12
Nsg13
I6
sg14
g346
sg15
(i__main__
Node
p626
(dp627
g2
(i__main__
Node
p628
(dp629
g2
Nsg11
Nsg12
I1
sg13
I8
sg14
Nsg15
Nsbsg11
Nsg12
Nsg13
I7
sg14
S'hang'
p630
sg15
(i__main__
Node
p631
(dp632
g2
(i__main__
Node
p633
(dp634
g2
(i__main__
Node
p635
(dp636
g2
Nsg11
Nsg12
I1
sg13
I10
sg14
Nsg15
Nsbsg11
Nsg12
Nsg13
I9
sg14
S'just'
p637
sg15
(i__main__
Node
p638
(dp639
g2
Nsg11
Nsg12
I-1
sg13
I10
sg14
Nsg15
Nsbsbsg11
Nsg12
Nsg13
I8
sg14
S'realli'
p640
sg15
(i__main__
Node
p641
(dp642
g2
(i__main__
Node
p643
(dp644
g2
Nsg11
Nsg12
I1
sg13
I10
sg14
Nsg15
Nsbsg11
Nsg12
Nsg13
I9
sg14
S'chai'
p645
sg15
(i__main__
Node
p646
(dp647
g2
(i__main__
Node
p648
(dp649
g2
Nsg11
Nsg12
I1
sg13
I11
sg14
Nsg15
Nsbsg11
Nsg12
Nsg13
I10
sg14
S'sweater'
p650
sg15
(i__main__
Node
p651
(dp652
g2
(i__main__
Node
p653
(dp654
g2
(i__main__
Node
p655
(dp656
g2
Nsg11
Nsg12
I1
sg13
I13
sg14
Nsg15
Nsbsg11
Nsg12
Nsg13
I12
sg14
S'how'
p657
sg15
(i__main__
Node
p658
(dp659
g2
(i__main__
Node
p660
(dp661
g2
Nsg11
Nsg12
I1
sg13
I14
sg14
Nsg15
Nsbsg11
Nsg12
Nsg13
I13
sg14
g507
sg15
(i__main__
Node
p662
(dp663
g2
Nsg11
Nsg12
I-1
sg13
I14
sg14
Nsg15
Nsbsbsbsg11
Nsg12
Nsg13
I11
sg14
S'storm'
p664
sg15
(i__main__
Node
p665
(dp666
g2
(i__main__
Node
p667
(dp668
g2
Nsg11
Nsg12
I1
sg13
I13
sg14
Nsg15
Nsbsg11
Nsg12
Nsg13
I12
sg14
S'tabl'
p669
sg15
(i__main__
Node
p670
(dp671
g2
Nsg11
Nsg12
I-1
sg13
I13
sg14
Nsg15
Nsbsbsbsbsbsbsbsbsg11
Nsg12
Nsg13
I5
sg14
S'warm'
p672
sg15
(i__main__
Node
p673
(dp674
g2
(i__main__
Node
p675
(dp676
g2
(i__main__
Node
p677
(dp678
g2
Nsg11
Nsg12
I1
sg13
I8
sg14
Nsg15
Nsbsg11
Nsg12
Nsg13
I7
sg14
S'until'
p679
sg15
(i__main__
Node
p680
(dp681
g2
(i__main__
Node
p682
(dp683
g2
Nsg11
Nsg12
I1
sg13
I9
sg14
Nsg15
Nsbsg11
Nsg12
Nsg13
I8
sg14
S'hidden'
p684
sg15
(i__main__
Node
p685
(dp686
g2
(i__main__
Node
p687
(dp688
g2
Nsg11
Nsg12
I1
sg13
I10
sg14
Nsg15
Nsbsg11
Nsg12
Nsg13
I9
sg14
g21
sg15
(i__main__
Node
p689
(dp690
g2
(i__main__
Node
p691
(dp692
g2
Nsg11
Nsg12
I1
sg13
I11
sg14
Nsg15
Nsbsg11
Nsg12
Nsg13
I10
sg14
S'ur'
p693
sg15
(i__main__
Node
p694
(dp695
g2
(i__main__
Node
p696
(dp697
g2
Nsg11
Nsg12
I1
sg13
I12
sg14
Nsg15
Nsbsg11
Nsg12
Nsg13
I11
sg14
S'unless'
p698
sg15
(i__main__
Node
p699
(dp700
g2
(i__main__
Node
p701
(dp702
g2
Nsg11
Nsg12
I1
sg13
I13
sg14
Nsg15
Nsbsg11
Nsg12
Nsg13
I12
sg14
S'dear'
p703
sg15
(i__main__
Node
p704
(dp705
g2
(i__main__
Node
p706
(dp707
g2
(i__main__
Node
p708
(dp709
g2
Nsg11
Nsg12
I-1
sg13
I15
sg14
Nsg15
Nsbsg11
Nsg12
Nsg13
I14
sg14
S'news'
p710
sg15
(i__main__
Node
p711
(dp712
g2
Nsg11
Nsg12
I1
sg13
I15
sg14
Nsg15
Nsbsbsg11
Nsg12
Nsg13
I13
sg14
S'backpack'
p713
sg15
(i__main__
Node
p714
(dp715
g2
Nsg11
Nsg12
I-1
sg13
I14
sg14
Nsg15
Nsbsbsbsbsbsbsbsbsg11
Nsg12
Nsg13
I6
sg14
S'warmer'
p716
sg15
(i__main__
Node
p717
(dp718
g2
(i__main__
Node
p719
(dp720
g2
Nsg11
Nsg12
I1
sg13
I8
sg14
Nsg15
Nsbsg11
Nsg12
Nsg13
I7
sg14
S'hott'
p721
sg15
(i__main__
Node
p722
(dp723
g2
(i__main__
Node
p724
(dp725
g2
(i__main__
Node
p726
(dp727
g2
Nsg11
Nsg12
I1
sg13
I10
sg14
Nsg15
Nsbsg11
Nsg12
Nsg13
I9
sg14
g603
sg15
(i__main__
Node
p728
(dp729
g2
(i__main__
Node
p730
(dp731
g2
(i__main__
Node
p732
(dp733
g2
Nsg11
Nsg12
I1
sg13
I12
sg14
Nsg15
Nsbsg11
Nsg12
Nsg13
I11
sg14
S'us'
p734
sg15
(i__main__
Node
p735
(dp736
g2
(i__main__
Node
p737
(dp738
g2
Nsg11
Nsg12
I1
sg13
I13
sg14
Nsg15
Nsbsg11
Nsg12
Nsg13
I12
sg14
S'49'
p739
sg15
(i__main__
Node
p740
(dp741
g2
(i__main__
Node
p742
(dp743
g2
(i__main__
Node
p744
(dp745
g2
Nsg11
Nsg12
I-1
sg13
I15
sg14
Nsg15
Nsbsg11
Nsg12
Nsg13
I14
sg14
g512
sg15
(i__main__
Node
p746
(dp747
g2
Nsg11
Nsg12
I1
sg13
I15
sg14
Nsg15
Nsbsbsg11
Nsg12
Nsg13
I13
sg14
S'19'
p748
sg15
(i__main__
Node
p749
(dp750
g2
Nsg11
Nsg12
I-1
sg13
I14
sg14
Nsg15
Nsbsbsbsbsg11
Nsg12
Nsg13
I10
sg14
g44
sg15
(i__main__
Node
p751
(dp752
g2
Nsg11
Nsg12
I-1
sg13
I11
sg14
Nsg15
Nsbsbsbsg11
Nsg12
Nsg13
I8
sg14
S'temp'
p753
sg15
(i__main__
Node
p754
(dp755
g2
(i__main__
Node
p756
(dp757
g2
(i__main__
Node
p758
(dp759
g2
(i__main__
Node
p760
(dp761
g2
Nsg11
Nsg12
I1
sg13
I12
sg14
Nsg15
Nsbsg11
Nsg12
Nsg13
I11
sg14
g346
sg15
(i__main__
Node
p762
(dp763
g2
Nsg11
Nsg12
I-1
sg13
I12
sg14
Nsg15
Nsbsbsg11
Nsg12
Nsg13
I10
sg14
g244
sg15
(i__main__
Node
p764
(dp765
g2
Nsg11
Nsg12
I-1
sg13
I11
sg14
Nsg15
Nsbsbsg11
Nsg12
Nsg13
I9
sg14
S'middl'
p766
sg15
(i__main__
Node
p767
(dp768
g2
(i__main__
Node
p769
(dp770
g2
Nsg11
Nsg12
I1
sg13
I11
sg14
Nsg15
Nsbsg11
Nsg12
Nsg13
I10
sg14
S'geniu'
p771
sg15
(i__main__
Node
p772
(dp773
g2
(i__main__
Node
p774
(dp775
g2
Nsg11
Nsg12
I1
sg13
I12
sg14
Nsg15
Nsbsg11
Nsg12
Nsg13
I11
sg14
S'spam'
p776
sg15
(i__main__
Node
p777
(dp778
g2
(i__main__
Node
p779
(dp780
g2
Nsg11
Nsg12
I1
sg13
I13
sg14
Nsg15
Nsbsg11
Nsg12
Nsg13
I12
sg14
S'hawt'
p781
sg15
(i__main__
Node
p782
(dp783
g2
(i__main__
Node
p784
(dp785
g2
Nsg11
Nsg12
I1
sg13
I14
sg14
Nsg15
Nsbsg11
Nsg12
Nsg13
I13
sg14
S'apparantli'
p786
sg15
(i__main__
Node
p787
(dp788
g2
(i__main__
Node
p789
(dp790
g2
Nsg11
Nsg12
I1
sg13
I15
sg14
Nsg15
Nsbsg11
Nsg12
Nsg13
I14
sg14
S'toohot'
p791
sg15
(i__main__
Node
p792
(dp793
g2
Nsg11
Nsg12
I-1
sg13
I15
sg14
Nsg15
Nsbsbsbsbsbsbsbsbsbsbsbsbsbsbsb.