(i__main__
Node
p0
(dp1
S'right'
p2
(i__main__
Node
p3
(dp4
g2
(i__main__
Node
p5
(dp6
g2
(i__main__
Node
p7
(dp8
g2
NsS'parser'
p9
NsS'label'
p10
I1
sS'depth'
p11
I4
sS'criterion'
p12
NsS'left'
p13
Nsbsg9
Nsg10
Nsg11
I3
sg12
S'would'
p14
sg13
(i__main__
Node
p15
(dp16
g2
Nsg9
Nsg10
I-1
sg11
I4
sg12
Nsg13
Nsbsbsg9
Nsg10
Nsg11
I2
sg12
S'degre'
p17
sg13
(i__main__
Node
p18
(dp19
g2
(i__main__
Node
p20
(dp21
g2
(i__main__
Node
p22
(dp23
g2
Nsg9
Nsg10
I-1
sg11
I5
sg12
Nsg13
Nsbsg9
Nsg10
Nsg11
I4
sg12
S're'
p24
sg13
(i__main__
Node
p25
(dp26
g2
(i__main__
Node
p27
(dp28
g2
Nsg9
Nsg10
I-1
sg11
I6
sg12
Nsg13
Nsbsg9
Nsg10
Nsg11
I5
sg12
S'west'
p29
sg13
(i__main__
Node
p30
(dp31
g2
(i__main__
Node
p32
(dp33
g2
Nsg9
Nsg10
I-1
sg11
I7
sg12
Nsg13
Nsbsg9
Nsg10
Nsg11
I6
sg12
S'heat'
p34
sg13
(i__main__
Node
p35
(dp36
g2
Nsg9
Nsg10
I1
sg11
I7
sg12
Nsg13
Nsbsbsbsbsg9
Nsg10
Nsg11
I3
sg12
S'citi'
p37
sg13
(i__main__
Node
p38
(dp39
g2
(i__main__
Node
p40
(dp41
g2
Nsg9
Nsg10
I-1
sg11
I5
sg12
Nsg13
Nsbsg9
Nsg10
Nsg11
I4
sg12
S'believ'
p42
sg13
(i__main__
Node
p43
(dp44
g2
(i__main__
Node
p45
(dp46
g2
Nsg9
Nsg10
I-1
sg11
I6
sg12
Nsg13
Nsbsg9
Nsg10
Nsg11
I5
sg12
S'weatherman'
p47
sg13
(i__main__
Node
p48
(dp49
g2
(i__main__
Node
p50
(dp51
g2
Nsg9
Nsg10
I-1
sg11
I7
sg12
Nsg13
Nsbsg9
Nsg10
Nsg11
I6
sg12
S'garden'
p52
sg13
(i__main__
Node
p53
(dp54
g2
(i__main__
Node
p55
(dp56
g2
Nsg9
Nsg10
I-1
sg11
I8
sg12
Nsg13
Nsbsg9
Nsg10
Nsg11
I7
sg12
S'flagstaff'
p57
sg13
(i__main__
Node
p58
(dp59
g2
(i__main__
Node
p60
(dp61
g2
Nsg9
Nsg10
I-1
sg11
I9
sg12
Nsg13
Nsbsg9
Nsg10
Nsg11
I8
sg12
S'albuquerqu'
p62
sg13
(i__main__
Node
p63
(dp64
g2
(i__main__
Node
p65
(dp66
g2
Nsg9
Nsg10
I-1
sg11
I10
sg12
Nsg13
Nsbsg9
Nsg10
Nsg11
I9
sg12
S'nearbi'
p67
sg13
(i__main__
Node
p68
(dp69
g2
(i__main__
Node
p70
(dp71
g2
Nsg9
Nsg10
I-1
sg11
I11
sg12
Nsg13
Nsbsg9
Nsg10
Nsg11
I10
sg12
S'0_o'
p72
sg13
(i__main__
Node
p73
(dp74
g2
(i__main__
Node
p75
(dp76
g2
Nsg9
Nsg10
I-1
sg11
I12
sg12
Nsg13
Nsbsg9
Nsg10
Nsg11
I11
sg12
S'56'
p77
sg13
(i__main__
Node
p78
(dp79
g2
(i__main__
Node
p80
(dp81
g2
(i__main__
Node
p82
(dp83
g2
Nsg9
Nsg10
I-1
sg11
I14
sg12
Nsg13
Nsbsg9
Nsg10
Nsg11
I13
sg12
S'fair'
p84
sg13
(i__main__
Node
p85
(dp86
g2
Nsg9
Nsg10
I1
sg11
I14
sg12
Nsg13
Nsbsbsg9
Nsg10
Nsg11
I12
sg12
S'gillett'
p87
sg13
(i__main__
Node
p88
(dp89
g2
Nsg9
Nsg10
I1
sg11
I13
sg12
Nsg13
Nsbsbsbsbsbsbsbsbsbsbsbsbsg9
Nsg10
Nsg11
I1
sg12
S'windi'
p90
sg13
(i__main__
Node
p91
(dp92
g2
(i__main__
Node
p93
(dp94
g2
(i__main__
Node
p95
(dp96
g2
(i__main__
Node
p97
(dp98
g2
Nsg9
Nsg10
I1
sg11
I5
sg12
Nsg13
Nsbsg9
Nsg10
Nsg11
I4
sg12
S'8mb'
p99
sg13
(i__main__
Node
p100
(dp101
g2
(i__main__
Node
p102
(dp103
g2
Nsg9
Nsg10
I1
sg11
I6
sg12
Nsg13
Nsbsg9
Nsg10
Nsg11
I5
sg12
S'970'
p104
sg13
(i__main__
Node
p105
(dp106
g2
(i__main__
Node
p107
(dp108
g2
(i__main__
Node
p109
(dp110
g2
(i__main__
Node
p111
(dp112
g2
Nsg9
Nsg10
I-1
sg11
I9
sg12
Nsg13
Nsbsg9
Nsg10
Nsg11
I8
sg12
S'2mph'
p113
sg13
(i__main__
Node
p114
(dp115
g2
Nsg9
Nsg10
I1
sg11
I9
sg12
Nsg13
Nsbsbsg9
Nsg10
Nsg11
I7
sg12
S'1'
p116
sg13
(i__main__
Node
p117
(dp118
g2
(i__main__
Node
p119
(dp120
g2
Nsg9
Nsg10
I1
sg11
I9
sg12
Nsg13
Nsbsg9
Nsg10
Nsg11
I8
sg12
S'59'
p121
sg13
(i__main__
Node
p122
(dp123
g2
Nsg9
Nsg10
I-1
sg11
I9
sg12
Nsg13
Nsbsbsbsg9
Nsg10
Nsg11
I6
sg12
S'pressur'
p124
sg13
(i__main__
Node
p125
(dp126
g2
(i__main__
Node
p127
(dp128
g2
Nsg9
Nsg10
I1
sg11
I8
sg12
Nsg13
Nsbsg9
Nsg10
Nsg11
I7
sg12
S'90f'
p129
sg13
(i__main__
Node
p130
(dp131
g2
(i__main__
Node
p132
(dp133
g2
Nsg9
Nsg10
I1
sg11
I9
sg12
Nsg13
Nsbsg9
Nsg10
Nsg11
I8
sg12
S'309'
p134
sg13
(i__main__
Node
p135
(dp136
g2
(i__main__
Node
p137
(dp138
g2
(i__main__
Node
p139
(dp140
g2
Nsg9
Nsg10
I-1
sg11
I11
sg12
Nsg13
Nsbsg9
Nsg10
Nsg11
I10
sg12
S'hum'
p141
sg13
(i__main__
Node
p142
(dp143
g2
(i__main__
Node
p144
(dp145
g2
(i__main__
Node
p146
(dp147
g2
Nsg9
Nsg10
I1
sg11
I13
sg12
Nsg13
Nsbsg9
Nsg10
Nsg11
I12
sg12
S'7'
p148
sg13
(i__main__
Node
p149
(dp150
g2
Nsg9
Nsg10
I-1
sg11
I13
sg12
Nsg13
Nsbsbsg9
Nsg10
Nsg11
I11
sg12
S'outsid'
p151
sg13
(i__main__
Node
p152
(dp153
g2
Nsg9
Nsg10
I1
sg11
I12
sg12
Nsg13
Nsbsbsbsg9
Nsg10
Nsg11
I9
sg12
S'73'
p154
sg13
(i__main__
Node
p155
(dp156
g2
(i__main__
Node
p157
(dp158
g2
(i__main__
Node
p159
(dp160
g2
Nsg9
Nsg10
I1
sg11
I12
sg12
Nsg13
Nsbsg9
Nsg10
Nsg11
I11
sg12
S'am'
p161
sg13
(i__main__
Node
p162
(dp163
g2
Nsg9
Nsg10
I-1
sg11
I12
sg12
Nsg13
Nsbsbsg9
Nsg10
Nsg11
I10
sg12
S'05'
p164
sg13
(i__main__
Node
p165
(dp166
g2
(i__main__
Node
p167
(dp168
g2
(i__main__
Node
p169
(dp170
g2
Nsg9
Nsg10
I1
sg11
I13
sg12
Nsg13
Nsbsg9
Nsg10
Nsg11
I12
sg12
S'34'
p171
sg13
(i__main__
Node
p172
(dp173
g2
Nsg9
Nsg10
I-1
sg11
I13
sg12
Nsg13
Nsbsbsg9
Nsg10
Nsg11
I11
sg12
g84
sg13
(i__main__
Node
p174
(dp175
g2
Nsg9
Nsg10
I-1
sg11
I12
sg12
Nsg13
Nsbsbsbsbsbsbsbsbsbsg9
Nsg10
Nsg11
I3
sg12
S'0'
p176
sg13
(i__main__
Node
p177
(dp178
g2
(i__main__
Node
p179
(dp180
g2
(i__main__
Node
p181
(dp182
g2
(i__main__
Node
p183
(dp184
g2
Nsg9
Nsg10
I1
sg11
I7
sg12
Nsg13
Nsbsg9
Nsg10
Nsg11
I6
sg12
S'h'
p185
sg13
(i__main__
Node
p186
(dp187
g2
(i__main__
Node
p188
(dp189
g2
Nsg9
Nsg10
I1
sg11
I8
sg12
Nsg13
Nsbsg9
Nsg10
Nsg11
I7
sg12
S'68'
p190
sg13
(i__main__
Node
p191
(dp192
g2
Nsg9
Nsg10
I-1
sg11
I8
sg12
Nsg13
Nsbsbsbsg9
Nsg10
Nsg11
I5
sg12
S'east'
p193
sg13
(i__main__
Node
p194
(dp195
g2
(i__main__
Node
p196
(dp197
g2
Nsg9
Nsg10
I-1
sg11
I7
sg12
Nsg13
Nsbsg9
Nsg10
Nsg11
I6
sg12
S'northeast'
p198
sg13
(i__main__
Node
p199
(dp200
g2
(i__main__
Node
p201
(dp202
g2
Nsg9
Nsg10
I-1
sg11
I8
sg12
Nsg13
Nsbsg9
Nsg10
Nsg11
I7
sg12
S'p'
p203
sg13
(i__main__
Node
p204
(dp205
g2
(i__main__
Node
p206
(dp207
g2
(i__main__
Node
p208
(dp209
g2
(i__main__
Node
p210
(dp211
g2
Nsg9
Nsg10
I1
sg11
I11
sg12
Nsg13
Nsbsg9
Nsg10
Nsg11
I10
sg12
g161
sg13
(i__main__
Node
p212
(dp213
g2
(i__main__
Node
p214
(dp215
g2
Nsg9
Nsg10
I1
sg11
I12
sg12
Nsg13
Nsbsg9
Nsg10
Nsg11
I11
sg12
S'57f'
p216
sg13
(i__main__
Node
p217
(dp218
g2
Nsg9
Nsg10
I-1
sg11
I12
sg12
Nsg13
Nsbsbsbsg9
Nsg10
Nsg11
I9
sg12
S'30'
p219
sg13
(i__main__
Node
p220
(dp221
g2
(i__main__
Node
p222
(dp223
g2
Nsg9
Nsg10
I1
sg11
I11
sg12
Nsg13
Nsbsg9
Nsg10
Nsg11
I10
sg12
S'96'
p224
sg13
(i__main__
Node
p225
(dp226
g2
(i__main__
Node
p227
(dp228
g2
Nsg9
Nsg10
I1
sg11
I12
sg12
Nsg13
Nsbsg9
Nsg10
Nsg11
I11
sg12
g77
sg13
(i__main__
Node
p229
(dp230
g2
(i__main__
Node
p231
(dp232
g2
Nsg9
Nsg10
I1
sg11
I13
sg12
Nsg13
Nsbsg9
Nsg10
Nsg11
I12
sg12
S'75'
p233
sg13
(i__main__
Node
p234
(dp235
g2
(i__main__
Node
p236
(dp237
g2
Nsg9
Nsg10
I1
sg11
I14
sg12
Nsg13
Nsbsg9
Nsg10
Nsg11
I13
sg12
S'63f'
p238
sg13
(i__main__
Node
p239
(dp240
g2
(i__main__
Node
p241
(dp242
g2
Nsg9
Nsg10
I1
sg11
I15
sg12
Nsg13
Nsbsg9
Nsg10
Nsg11
I14
sg12
S'47f'
p243
sg13
(i__main__
Node
p244
(dp245
g2
Nsg9
Nsg10
I-1
sg11
I15
sg12
Nsg13
Nsbsbsbsbsbsbsbsg9
Nsg10
Nsg11
I8
sg12
S'8mph'
p246
sg13
(i__main__
Node
p247
(dp248
g2
(i__main__
Node
p249
(dp250
g2
(i__main__
Node
p251
(dp252
g2
Nsg9
Nsg10
I-1
sg11
I11
sg12
Nsg13
Nsbsg9
Nsg10
Nsg11
I10
sg12
g161
sg13
(i__main__
Node
p253
(dp254
g2
Nsg9
Nsg10
I1
sg11
I11
sg12
Nsg13
Nsbsbsg9
Nsg10
Nsg11
I9
sg12
S'19'
p255
sg13
(i__main__
Node
p256
(dp257
g2
(i__main__
Node
p258
(dp259
g2
(i__main__
Node
p260
(dp261
g2
Nsg9
Nsg10
I-1
sg11
I12
sg12
Nsg13
Nsbsg9
Nsg10
Nsg11
I11
sg12
S'87'
p262
sg13
(i__main__
Node
p263
(dp264
g2
(i__main__
Node
p265
(dp266
g2
Nsg9
Nsg10
I-1
sg11
I13
sg12
Nsg13
Nsbsg9
Nsg10
Nsg11
I12
sg12
S'82'
p267
sg13
(i__main__
Node
p268
(dp269
g2
Nsg9
Nsg10
I1
sg11
I13
sg12
Nsg13
Nsbsbsbsg9
Nsg10
Nsg11
I10
sg12
S'3mph'
p270
sg13
(i__main__
Node
p271
(dp272
g2
(i__main__
Node
p273
(dp274
g2
(i__main__
Node
p275
(dp276
g2
Nsg9
Nsg10
I1
sg11
I13
sg12
Nsg13
Nsbsg9
Nsg10
Nsg11
I12
sg12
S'7mph'
p277
sg13
(i__main__
Node
p278
(dp279
g2
(i__main__
Node
p280
(dp281
g2
Nsg9
Nsg10
I1
sg11
I14
sg12
Nsg13
Nsbsg9
Nsg10
Nsg11
I13
sg12
g161
sg13
(i__main__
Node
p282
(dp283
g2
(i__main__
Node
p284
(dp285
g2
Nsg9
Nsg10
I1
sg11
I15
sg12
Nsg13
Nsbsg9
Nsg10
Nsg11
I14
sg12
g148
sg13
(i__main__
Node
p286
(dp287
g2
Nsg9
Nsg10
I-1
sg11
I15
sg12
Nsg13
Nsbsbsbsbsg9
Nsg10
Nsg11
I11
sg12
g233
sg13
(i__main__
Node
p288
(dp289
g2
(i__main__
Node
p290
(dp291
g2
Nsg9
Nsg10
I-1
sg11
I13
sg12
Nsg13
Nsbsg9
Nsg10
Nsg11
I12
sg12
S'79'
p292
sg13
(i__main__
Node
p293
(dp294
g2
(i__main__
Node
p295
(dp296
g2
(i__main__
Node
p297
(dp298
g2
Nsg9
Nsg10
I-1
sg11
I15
sg12
Nsg13
Nsbsg9
Nsg10
Nsg11
I14
sg12
S'52'
p299
sg13
(i__main__
Node
p300
(dp301
g2
Nsg9
Nsg10
I-1
sg11
I15
sg12
Nsg13
Nsbsbsg9
Nsg10
Nsg11
I13
sg12
S'north'
p302
sg13
(i__main__
Node
p303
(dp304
g2
(i__main__
Node
p305
(dp306
g2
Nsg9
Nsg10
I1
sg11
I15
sg12
Nsg13
Nsbsg9
Nsg10
Nsg11
I14
sg12
S'94'
p307
sg13
(i__main__
Node
p308
(dp309
g2
Nsg9
Nsg10
I-1
sg11
I15
sg12
Nsg13
Nsbsbsbsbsbsbsbsbsbsbsbsg9
Nsg10
Nsg11
I4
sg12
S'feel'
p310
sg13
(i__main__
Node
p311
(dp312
g2
(i__main__
Node
p313
(dp314
g2
Nsg9
Nsg10
I-1
sg11
I6
sg12
Nsg13
Nsbsg9
Nsg10
Nsg11
I5
sg12
S'until'
p315
sg13
(i__main__
Node
p316
(dp317
g2
(i__main__
Node
p318
(dp319
g2
Nsg9
Nsg10
I-1
sg11
I7
sg12
Nsg13
Nsbsg9
Nsg10
Nsg11
I6
sg12
S'f'
p320
sg13
(i__main__
Node
p321
(dp322
g2
(i__main__
Node
p323
(dp324
g2
Nsg9
Nsg10
I-1
sg11
I8
sg12
Nsg13
Nsbsg9
Nsg10
Nsg11
I7
sg12
S'tonight'
p325
sg13
(i__main__
Node
p326
(dp327
g2
(i__main__
Node
p328
(dp329
g2
Nsg9
Nsg10
I1
sg11
I9
sg12
Nsg13
Nsbsg9
Nsg10
Nsg11
I8
sg12
S'sunshin'
p330
sg13
(i__main__
Node
p331
(dp332
g2
(i__main__
Node
p333
(dp334
g2
Nsg9
Nsg10
I-1
sg11
I10
sg12
Nsg13
Nsbsg9
Nsg10
Nsg11
I9
sg12
S'old'
p335
sg13
(i__main__
Node
p336
(dp337
g2
(i__main__
Node
p338
(dp339
g2
Nsg9
Nsg10
I1
sg11
I11
sg12
Nsg13
Nsbsg9
Nsg10
Nsg11
I10
sg12
S'my'
p340
sg13
(i__main__
Node
p341
(dp342
g2
(i__main__
Node
p343
(dp344
g2
Nsg9
Nsg10
I1
sg11
I12
sg12
Nsg13
Nsbsg9
Nsg10
Nsg11
I11
sg12
S'love'
p345
sg13
(i__main__
Node
p346
(dp347
g2
(i__main__
Node
p348
(dp349
g2
Nsg9
Nsg10
I1
sg11
I13
sg12
Nsg13
Nsbsg9
Nsg10
Nsg11
I12
sg12
S'possibl'
p350
sg13
(i__main__
Node
p351
(dp352
g2
(i__main__
Node
p353
(dp354
g2
Nsg9
Nsg10
I-1
sg11
I14
sg12
Nsg13
Nsbsg9
Nsg10
Nsg11
I13
sg12
S'thunderstorm'
p355
sg13
(i__main__
Node
p356
(dp357
g2
(i__main__
Node
p358
(dp359
g2
Nsg9
Nsg10
I-1
sg11
I15
sg12
Nsg13
Nsbsg9
Nsg10
Nsg11
I14
sg12
S's'
p360
sg13
(i__main__
Node
p361
(dp362
g2
Nsg9
Nsg10
I1
sg11
I15
sg12
Nsg13
Nsbsbsbsbsbsbsbsbsbsbsbsbsbsg9
Nsg10
Nsg11
I2
sg12
S'wind'
p363
sg13
(i__main__
Node
p364
(dp365
g2
(i__main__
Node
p366
(dp367
g2
(i__main__
Node
p368
(dp369
g2
(i__main__
Node
p370
(dp371
g2
Nsg9
Nsg10
I1
sg11
I6
sg12
Nsg13
Nsbsg9
Nsg10
Nsg11
I5
sg12
S'happi'
p372
sg13
(i__main__
Node
p373
(dp374
g2
Nsg9
Nsg10
I-1
sg11
I6
sg12
Nsg13
Nsbsbsg9
Nsg10
Nsg11
I4
sg12
S'partli'
p375
sg13
(i__main__
Node
p376
(dp377
g2
(i__main__
Node
p378
(dp379
g2
Nsg9
Nsg10
I-1
sg11
I6
sg12
Nsg13
Nsbsg9
Nsg10
Nsg11
I5
sg12
S'jam'
p380
sg13
(i__main__
Node
p381
(dp382
g2
Nsg9
Nsg10
I1
sg11
I6
sg12
Nsg13
Nsbsbsbsg9
Nsg10
Nsg11
I3
sg12
S'breezi'
p383
sg13
(i__main__
Node
p384
(dp385
g2
(i__main__
Node
p386
(dp387
g2
(i__main__
Node
p388
(dp389
g2
Nsg9
Nsg10
I-1
sg11
I6
sg12
Nsg13
Nsbsg9
Nsg10
Nsg11
I5
sg12
S'sunni'
p390
sg13
(i__main__
Node
p391
(dp392
g2
(i__main__
Node
p393
(dp394
g2
Nsg9
Nsg10
I1
sg11
I7
sg12
Nsg13
Nsbsg9
Nsg10
Nsg11
I6
sg12
S'here'
p395
sg13
(i__main__
Node
p396
(dp397
g2
(i__main__
Node
p398
(dp399
g2
Nsg9
Nsg10
I1
sg11
I8
sg12
Nsg13
Nsbsg9
Nsg10
Nsg11
I7
sg12
S'light'
p400
sg13
(i__main__
Node
p401
(dp402
g2
(i__main__
Node
p403
(dp404
g2
(i__main__
Node
p405
(dp406
g2
Nsg9
Nsg10
I-1
sg11
I10
sg12
Nsg13
Nsbsg9
Nsg10
Nsg11
I9
sg12
S'right'
p407
sg13
(i__main__
Node
p408
(dp409
g2
Nsg9
Nsg10
I1
sg11
I10
sg12
Nsg13
Nsbsbsg9
Nsg10
Nsg11
I8
sg12
g360
sg13
(i__main__
Node
p410
(dp411
g2
(i__main__
Node
p412
(dp413
g2
Nsg9
Nsg10
I1
sg11
I10
sg12
Nsg13
Nsbsg9
Nsg10
Nsg11
I9
sg12
S'b'
p414
sg13
(i__main__
Node
p415
(dp416
g2
Nsg9
Nsg10
I-1
sg11
I10
sg12
Nsg13
Nsbsbsbsbsbsbsg9
Nsg10
Nsg11
I4
sg12
S'breez'
p417
sg13
(i__main__
Node
p418
(dp419
g2
(i__main__
Node
p420
(dp421
g2
(i__main__
Node
p422
(dp423
g2
(i__main__
Node
p424
(dp425
g2
Nsg9
Nsg10
I-1
sg11
I8
sg12
Nsg13
Nsbsg9
Nsg10
Nsg11
I7
sg12
S'i'
p426
sg13
(i__main__
Node
p427
(dp428
g2
Nsg9
Nsg10
I1
sg11
I8
sg12
Nsg13
Nsbsbsg9
Nsg10
Nsg11
I6
sg12
g340
sg13
(i__main__
Node
p429
(dp430
g2
Nsg9
Nsg10
I-1
sg11
I7
sg12
Nsg13
Nsbsbsg9
Nsg10
Nsg11
I5
sg12
S'myself'
p431
sg13
(i__main__
Node
p432
(dp433
g2
(i__main__
Node
p434
(dp435
g2
Nsg9
Nsg10
I1
sg11
I7
sg12
Nsg13
Nsbsg9
Nsg10
Nsg11
I6
sg12
S'rori'
p436
sg13
(i__main__
Node
p437
(dp438
g2
(i__main__
Node
p439
(dp440
g2
Nsg9
Nsg10
I1
sg11
I8
sg12
Nsg13
Nsbsg9
Nsg10
Nsg11
I7
sg12
S'bait'
p441
sg13
(i__main__
Node
p442
(dp443
g2
(i__main__
Node
p444
(dp445
g2
Nsg9
Nsg10
I1
sg11
I9
sg12
Nsg13
Nsbsg9
Nsg10
Nsg11
I8
sg12
S'windchil'
p446
sg13
(i__main__
Node
p447
(dp448
g2
(i__main__
Node
p449
(dp450
g2
(i__main__
Node
p451
(dp452
g2
Nsg9
Nsg10
I1
sg11
I11
sg12
Nsg13
Nsbsg9
Nsg10
Nsg11
I10
sg12
S'sw'
p453
sg13
(i__main__
Node
p454
(dp455
g2
(i__main__
Node
p456
(dp457
g2
Nsg9
Nsg10
I1
sg11
I12
sg12
Nsg13
Nsbsg9
Nsg10
Nsg11
I11
sg12
S'scare'
p458
sg13
(i__main__
Node
p459
(dp460
g2
(i__main__
Node
p461
(dp462
g2
Nsg9
Nsg10
I1
sg11
I13
sg12
Nsg13
Nsbsg9
Nsg10
Nsg11
I12
sg12
S'lacefront'
p463
sg13
(i__main__
Node
p464
(dp465
g2
Nsg9
Nsg10
I-1
sg11
I13
sg12
Nsg13
Nsbsbsbsbsg9
Nsg10
Nsg11
I9
sg12
S'like'
p466
sg13
(i__main__
Node
p467
(dp468
g2
Nsg9
Nsg10
I-1
sg11
I10
sg12
Nsg13
Nsbsbsbsbsbsbsbsbsbsb.