(i__main__
Node
p0
(dp1
S'right'
p2
(i__main__
Node
p3
(dp4
g2
(i__main__
Node
p5
(dp6
g2
(i__main__
Node
p7
(dp8
g2
NsS'parser'
p9
NsS'label'
p10
I1
sS'depth'
p11
I4
sS'criterion'
p12
NsS'left'
p13
Nsbsg9
Nsg10
Nsg11
I3
sg12
S'after'
p14
sg13
(i__main__
Node
p15
(dp16
g2
(i__main__
Node
p17
(dp18
g2
Nsg9
Nsg10
I1
sg11
I5
sg12
Nsg13
Nsbsg9
Nsg10
Nsg11
I4
sg12
S'great'
p19
sg13
(i__main__
Node
p20
(dp21
g2
(i__main__
Node
p22
(dp23
g2
Nsg9
Nsg10
I1
sg11
I6
sg12
Nsg13
Nsbsg9
Nsg10
Nsg11
I5
sg12
S'begin'
p24
sg13
(i__main__
Node
p25
(dp26
g2
(i__main__
Node
p27
(dp28
g2
Nsg9
Nsg10
I1
sg11
I7
sg12
Nsg13
Nsbsg9
Nsg10
Nsg11
I6
sg12
S'sincer'
p29
sg13
(i__main__
Node
p30
(dp31
g2
Nsg9
Nsg10
I-1
sg11
I7
sg12
Nsg13
Nsbsbsbsbsbsg9
Nsg10
Nsg11
I2
sg12
S'today'
p32
sg13
(i__main__
Node
p33
(dp34
g2
(i__main__
Node
p35
(dp36
g2
Nsg9
Nsg10
I-1
sg11
I4
sg12
Nsg13
Nsbsg9
Nsg10
Nsg11
I3
sg12
S'time'
p37
sg13
(i__main__
Node
p38
(dp39
g2
(i__main__
Node
p40
(dp41
g2
Nsg9
Nsg10
I-1
sg11
I5
sg12
Nsg13
Nsbsg9
Nsg10
Nsg11
I4
sg12
S'join'
p42
sg13
(i__main__
Node
p43
(dp44
g2
(i__main__
Node
p45
(dp46
g2
(i__main__
Node
p47
(dp48
g2
Nsg9
Nsg10
I1
sg11
I7
sg12
Nsg13
Nsbsg9
Nsg10
Nsg11
I6
sg12
S'hot'
p49
sg13
(i__main__
Node
p50
(dp51
g2
Nsg9
Nsg10
I-1
sg11
I7
sg12
Nsg13
Nsbsbsg9
Nsg10
Nsg11
I5
sg12
S'back'
p52
sg13
(i__main__
Node
p53
(dp54
g2
(i__main__
Node
p55
(dp56
g2
(i__main__
Node
p57
(dp58
g2
Nsg9
Nsg10
I1
sg11
I8
sg12
Nsg13
Nsbsg9
Nsg10
Nsg11
I7
sg12
S'pick'
p59
sg13
(i__main__
Node
p60
(dp61
g2
Nsg9
Nsg10
I-1
sg11
I8
sg12
Nsg13
Nsbsbsg9
Nsg10
Nsg11
I6
sg12
S'befor'
p62
sg13
(i__main__
Node
p63
(dp64
g2
(i__main__
Node
p65
(dp66
g2
Nsg9
Nsg10
I-1
sg11
I8
sg12
Nsg13
Nsbsg9
Nsg10
Nsg11
I7
sg12
S'stuck'
p67
sg13
(i__main__
Node
p68
(dp69
g2
(i__main__
Node
p70
(dp71
g2
(i__main__
Node
p72
(dp73
g2
Nsg9
Nsg10
I1
sg11
I10
sg12
Nsg13
Nsbsg9
Nsg10
Nsg11
I9
sg12
S'sunshin'
p74
sg13
(i__main__
Node
p75
(dp76
g2
(i__main__
Node
p77
(dp78
g2
Nsg9
Nsg10
I1
sg11
I11
sg12
Nsg13
Nsbsg9
Nsg10
Nsg11
I10
sg12
S'rt'
p79
sg13
(i__main__
Node
p80
(dp81
g2
Nsg9
Nsg10
I-1
sg11
I11
sg12
Nsg13
Nsbsbsbsg9
Nsg10
Nsg11
I8
sg12
S'high'
p82
sg13
(i__main__
Node
p83
(dp84
g2
(i__main__
Node
p85
(dp86
g2
(i__main__
Node
p87
(dp88
g2
Nsg9
Nsg10
I1
sg11
I11
sg12
Nsg13
Nsbsg9
Nsg10
Nsg11
I10
sg12
S'tournament'
p89
sg13
(i__main__
Node
p90
(dp91
g2
Nsg9
Nsg10
I-1
sg11
I11
sg12
Nsg13
Nsbsbsg9
Nsg10
Nsg11
I9
sg12
S'been'
p92
sg13
(i__main__
Node
p93
(dp94
g2
(i__main__
Node
p95
(dp96
g2
Nsg9
Nsg10
I-1
sg11
I11
sg12
Nsg13
Nsbsg9
Nsg10
Nsg11
I10
sg12
S'suck'
p97
sg13
(i__main__
Node
p98
(dp99
g2
(i__main__
Node
p100
(dp101
g2
Nsg9
Nsg10
I-1
sg11
I12
sg12
Nsg13
Nsbsg9
Nsg10
Nsg11
I11
sg12
S'month'
p102
sg13
(i__main__
Node
p103
(dp104
g2
(i__main__
Node
p105
(dp106
g2
Nsg9
Nsg10
I-1
sg11
I13
sg12
Nsg13
Nsbsg9
Nsg10
Nsg11
I12
sg12
S'show'
p107
sg13
(i__main__
Node
p108
(dp109
g2
(i__main__
Node
p110
(dp111
g2
Nsg9
Nsg10
I-1
sg11
I14
sg12
Nsg13
Nsbsg9
Nsg10
Nsg11
I13
sg12
S'goin'
p112
sg13
(i__main__
Node
p113
(dp114
g2
(i__main__
Node
p115
(dp116
g2
Nsg9
Nsg10
I-1
sg11
I15
sg12
Nsg13
Nsbsg9
Nsg10
Nsg11
I14
sg12
S'gorgeou'
p117
sg13
(i__main__
Node
p118
(dp119
g2
Nsg9
Nsg10
I1
sg11
I15
sg12
Nsg13
Nsbsbsbsbsbsbsbsbsbsbsbsbsbsbsg9
Nsg10
Nsg11
I1
sg12
S'tomorrow'
p120
sg13
(i__main__
Node
p121
(dp122
g2
(i__main__
Node
p123
(dp124
g2
(i__main__
Node
p125
(dp126
g2
(i__main__
Node
p127
(dp128
g2
Nsg9
Nsg10
I1
sg11
I5
sg12
Nsg13
Nsbsg9
Nsg10
Nsg11
I4
sg12
S'knoxvil'
p129
sg13
(i__main__
Node
p130
(dp131
g2
(i__main__
Node
p132
(dp133
g2
Nsg9
Nsg10
I1
sg11
I6
sg12
Nsg13
Nsbsg9
Nsg10
Nsg11
I5
sg12
S'weatherbug'
p134
sg13
(i__main__
Node
p135
(dp136
g2
(i__main__
Node
p137
(dp138
g2
Nsg9
Nsg10
I1
sg11
I7
sg12
Nsg13
Nsbsg9
Nsg10
Nsg11
I6
sg12
S'earli'
p139
sg13
(i__main__
Node
p140
(dp141
g2
(i__main__
Node
p142
(dp143
g2
Nsg9
Nsg10
I1
sg11
I8
sg12
Nsg13
Nsbsg9
Nsg10
Nsg11
I7
sg12
S'sunday'
p144
sg13
(i__main__
Node
p145
(dp146
g2
Nsg9
Nsg10
I-1
sg11
I8
sg12
Nsg13
Nsbsbsbsbsbsg9
Nsg10
Nsg11
I3
sg12
g32
sg13
(i__main__
Node
p147
(dp148
g2
(i__main__
Node
p149
(dp150
g2
Nsg9
Nsg10
I-1
sg11
I5
sg12
Nsg13
Nsbsg9
Nsg10
Nsg11
I4
sg12
S'fair'
p151
sg13
(i__main__
Node
p152
(dp153
g2
(i__main__
Node
p154
(dp155
g2
Nsg9
Nsg10
I-1
sg11
I6
sg12
Nsg13
Nsbsg9
Nsg10
Nsg11
I5
sg12
S'sever'
p156
sg13
(i__main__
Node
p157
(dp158
g2
(i__main__
Node
p159
(dp160
g2
Nsg9
Nsg10
I-1
sg11
I7
sg12
Nsg13
Nsbsg9
Nsg10
Nsg11
I6
sg12
S'11'
p161
sg13
(i__main__
Node
p162
(dp163
g2
(i__main__
Node
p164
(dp165
g2
(i__main__
Node
p166
(dp167
g2
Nsg9
Nsg10
I-1
sg11
I9
sg12
Nsg13
Nsbsg9
Nsg10
Nsg11
I8
sg12
S'new'
p168
sg13
(i__main__
Node
p169
(dp170
g2
(i__main__
Node
p171
(dp172
g2
Nsg9
Nsg10
I-1
sg11
I10
sg12
Nsg13
Nsbsg9
Nsg10
Nsg11
I9
sg12
S'sun'
p173
sg13
(i__main__
Node
p174
(dp175
g2
(i__main__
Node
p176
(dp177
g2
(i__main__
Node
p178
(dp179
g2
Nsg9
Nsg10
I1
sg11
I12
sg12
Nsg13
Nsbsg9
Nsg10
Nsg11
I11
sg12
S'wtf'
p180
sg13
(i__main__
Node
p181
(dp182
g2
(i__main__
Node
p183
(dp184
g2
Nsg9
Nsg10
I1
sg11
I13
sg12
Nsg13
Nsbsg9
Nsg10
Nsg11
I12
sg12
S'tx'
p185
sg13
(i__main__
Node
p186
(dp187
g2
(i__main__
Node
p188
(dp189
g2
Nsg9
Nsg10
I1
sg11
I14
sg12
Nsg13
Nsbsg9
Nsg10
Nsg11
I13
sg12
S'60446'
p190
sg13
(i__main__
Node
p191
(dp192
g2
Nsg9
Nsg10
I-1
sg11
I14
sg12
Nsg13
Nsbsbsbsbsg9
Nsg10
Nsg11
I10
sg12
S'weather'
p193
sg13
(i__main__
Node
p194
(dp195
g2
Nsg9
Nsg10
I1
sg11
I11
sg12
Nsg13
Nsbsbsbsbsg9
Nsg10
Nsg11
I7
sg12
S'current'
p196
sg13
(i__main__
Node
p197
(dp198
g2
(i__main__
Node
p199
(dp200
g2
(i__main__
Node
p201
(dp202
g2
Nsg9
Nsg10
I1
sg11
I10
sg12
Nsg13
Nsbsg9
Nsg10
Nsg11
I9
sg12
S's'
p203
sg13
(i__main__
Node
p204
(dp205
g2
Nsg9
Nsg10
I-1
sg11
I10
sg12
Nsg13
Nsbsbsg9
Nsg10
Nsg11
I8
sg12
S'm'
p206
sg13
(i__main__
Node
p207
(dp208
g2
(i__main__
Node
p209
(dp210
g2
Nsg9
Nsg10
I-1
sg11
I10
sg12
Nsg13
Nsbsg9
Nsg10
Nsg11
I9
sg12
S'you'
p211
sg13
(i__main__
Node
p212
(dp213
g2
(i__main__
Node
p214
(dp215
g2
Nsg9
Nsg10
I-1
sg11
I11
sg12
Nsg13
Nsbsg9
Nsg10
Nsg11
I10
sg12
S'50'
p216
sg13
(i__main__
Node
p217
(dp218
g2
(i__main__
Node
p219
(dp220
g2
Nsg9
Nsg10
I1
sg11
I12
sg12
Nsg13
Nsbsg9
Nsg10
Nsg11
I11
sg12
S'week'
p221
sg13
(i__main__
Node
p222
(dp223
g2
(i__main__
Node
p224
(dp225
g2
Nsg9
Nsg10
I-1
sg11
I13
sg12
Nsg13
Nsbsg9
Nsg10
Nsg11
I12
sg12
S're'
p226
sg13
(i__main__
Node
p227
(dp228
g2
(i__main__
Node
p229
(dp230
g2
Nsg9
Nsg10
I-1
sg11
I14
sg12
Nsg13
Nsbsg9
Nsg10
Nsg11
I13
sg12
S'normal'
p231
sg13
(i__main__
Node
p232
(dp233
g2
(i__main__
Node
p234
(dp235
g2
Nsg9
Nsg10
I-1
sg11
I15
sg12
Nsg13
Nsbsg9
Nsg10
Nsg11
I14
sg12
S'through'
p236
sg13
(i__main__
Node
p237
(dp238
g2
Nsg9
Nsg10
I1
sg11
I15
sg12
Nsg13
Nsbsbsbsbsbsbsbsbsbsbsbsbsbsg9
Nsg10
Nsg11
I2
sg12
S'forecast'
p239
sg13
(i__main__
Node
p240
(dp241
g2
(i__main__
Node
p242
(dp243
g2
(i__main__
Node
p244
(dp245
g2
(i__main__
Node
p246
(dp247
g2
Nsg9
Nsg10
I-1
sg11
I6
sg12
Nsg13
Nsbsg9
Nsg10
Nsg11
I5
sg12
S'last'
p248
sg13
(i__main__
Node
p249
(dp250
g2
(i__main__
Node
p251
(dp252
g2
Nsg9
Nsg10
I-1
sg11
I7
sg12
Nsg13
Nsbsg9
Nsg10
Nsg11
I6
sg12
S'keep'
p253
sg13
(i__main__
Node
p254
(dp255
g2
Nsg9
Nsg10
I1
sg11
I7
sg12
Nsg13
Nsbsbsbsg9
Nsg10
Nsg11
I4
sg12
S'go'
p256
sg13
(i__main__
Node
p257
(dp258
g2
(i__main__
Node
p259
(dp260
g2
Nsg9
Nsg10
I-1
sg11
I6
sg12
Nsg13
Nsbsg9
Nsg10
Nsg11
I5
sg12
S'beauti'
p261
sg13
(i__main__
Node
p262
(dp263
g2
(i__main__
Node
p264
(dp265
g2
(i__main__
Node
p266
(dp267
g2
Nsg9
Nsg10
I1
sg11
I8
sg12
Nsg13
Nsbsg9
Nsg10
Nsg11
I7
sg12
g49
sg13
(i__main__
Node
p268
(dp269
g2
(i__main__
Node
p270
(dp271
g2
Nsg9
Nsg10
I1
sg11
I9
sg12
Nsg13
Nsbsg9
Nsg10
Nsg11
I8
sg12
S'so'
p272
sg13
(i__main__
Node
p273
(dp274
g2
Nsg9
Nsg10
I-1
sg11
I9
sg12
Nsg13
Nsbsbsbsg9
Nsg10
Nsg11
I6
sg12
S'here'
p275
sg13
(i__main__
Node
p276
(dp277
g2
(i__main__
Node
p278
(dp279
g2
Nsg9
Nsg10
I-1
sg11
I8
sg12
Nsg13
Nsbsg9
Nsg10
Nsg11
I7
sg12
S'ha'
p280
sg13
(i__main__
Node
p281
(dp282
g2
(i__main__
Node
p283
(dp284
g2
Nsg9
Nsg10
I-1
sg11
I9
sg12
Nsg13
Nsbsg9
Nsg10
Nsg11
I8
sg12
S'storm'
p285
sg13
(i__main__
Node
p286
(dp287
g2
(i__main__
Node
p288
(dp289
g2
Nsg9
Nsg10
I-1
sg11
I10
sg12
Nsg13
Nsbsg9
Nsg10
Nsg11
I9
sg12
S'got'
p290
sg13
(i__main__
Node
p291
(dp292
g2
(i__main__
Node
p293
(dp294
g2
(i__main__
Node
p295
(dp296
g2
Nsg9
Nsg10
I1
sg11
I12
sg12
Nsg13
Nsbsg9
Nsg10
Nsg11
I11
sg12
S'see'
p297
sg13
(i__main__
Node
p298
(dp299
g2
Nsg9
Nsg10
I-1
sg11
I12
sg12
Nsg13
Nsbsbsg9
Nsg10
Nsg11
I10
sg12
S'perfect'
p300
sg13
(i__main__
Node
p301
(dp302
g2
(i__main__
Node
p303
(dp304
g2
Nsg9
Nsg10
I1
sg11
I12
sg12
Nsg13
Nsbsg9
Nsg10
Nsg11
I11
sg12
S'cool'
p305
sg13
(i__main__
Node
p306
(dp307
g2
(i__main__
Node
p308
(dp309
g2
Nsg9
Nsg10
I-1
sg11
I13
sg12
Nsg13
Nsbsg9
Nsg10
Nsg11
I12
sg12
S'90'
p310
sg13
(i__main__
Node
p311
(dp312
g2
(i__main__
Node
p313
(dp314
g2
Nsg9
Nsg10
I1
sg11
I14
sg12
Nsg13
Nsbsg9
Nsg10
Nsg11
I13
sg12
S'all'
p315
sg13
(i__main__
Node
p316
(dp317
g2
(i__main__
Node
p318
(dp319
g2
Nsg9
Nsg10
I-1
sg11
I15
sg12
Nsg13
Nsbsg9
Nsg10
Nsg11
I14
sg12
S'don'
p320
sg13
(i__main__
Node
p321
(dp322
g2
Nsg9
Nsg10
I1
sg11
I15
sg12
Nsg13
Nsbsbsbsbsbsbsbsbsbsbsbsbsg9
Nsg10
Nsg11
I3
sg12
S'weekend'
p323
sg13
(i__main__
Node
p324
(dp325
g2
(i__main__
Node
p326
(dp327
g2
(i__main__
Node
p328
(dp329
g2
(i__main__
Node
p330
(dp331
g2
Nsg9
Nsg10
I-1
sg11
I7
sg12
Nsg13
Nsbsg9
Nsg10
Nsg11
I6
sg12
S'one'
p332
sg13
(i__main__
Node
p333
(dp334
g2
(i__main__
Node
p335
(dp336
g2
Nsg9
Nsg10
I-1
sg11
I8
sg12
Nsg13
Nsbsg9
Nsg10
Nsg11
I7
sg12
g261
sg13
(i__main__
Node
p337
(dp338
g2
(i__main__
Node
p339
(dp340
g2
(i__main__
Node
p341
(dp342
g2
Nsg9
Nsg10
I1
sg11
I10
sg12
Nsg13
Nsbsg9
Nsg10
Nsg11
I9
sg12
g49
sg13
(i__main__
Node
p343
(dp344
g2
Nsg9
Nsg10
I-1
sg11
I10
sg12
Nsg13
Nsbsbsg9
Nsg10
Nsg11
I8
sg12
S'late'
p345
sg13
(i__main__
Node
p346
(dp347
g2
(i__main__
Node
p348
(dp349
g2
Nsg9
Nsg10
I-1
sg11
I10
sg12
Nsg13
Nsbsg9
Nsg10
Nsg11
I9
sg12
g49
sg13
(i__main__
Node
p350
(dp351
g2
(i__main__
Node
p352
(dp353
g2
Nsg9
Nsg10
I-1
sg11
I11
sg12
Nsg13
Nsbsg9
Nsg10
Nsg11
I10
sg12
g37
sg13
(i__main__
Node
p354
(dp355
g2
(i__main__
Node
p356
(dp357
g2
Nsg9
Nsg10
I-1
sg11
I12
sg12
Nsg13
Nsbsg9
Nsg10
Nsg11
I11
sg12
S'find'
p358
sg13
(i__main__
Node
p359
(dp360
g2
Nsg9
Nsg10
I1
sg11
I12
sg12
Nsg13
Nsbsbsbsbsbsbsbsg9
Nsg10
Nsg11
I5
sg12
S'next'
p361
sg13
(i__main__
Node
p362
(dp363
g2
(i__main__
Node
p364
(dp365
g2
Nsg9
Nsg10
I-1
sg11
I7
sg12
Nsg13
Nsbsg9
Nsg10
Nsg11
I6
sg12
g92
sg13
(i__main__
Node
p366
(dp367
g2
(i__main__
Node
p368
(dp369
g2
Nsg9
Nsg10
I1
sg11
I8
sg12
Nsg13
Nsbsg9
Nsg10
Nsg11
I7
sg12
S'mid'
p370
sg13
(i__main__
Node
p371
(dp372
g2
(i__main__
Node
p373
(dp374
g2
Nsg9
Nsg10
I-1
sg11
I9
sg12
Nsg13
Nsbsg9
Nsg10
Nsg11
I8
sg12
g275
sg13
(i__main__
Node
p375
(dp376
g2
(i__main__
Node
p377
(dp378
g2
Nsg9
Nsg10
I1
sg11
I10
sg12
Nsg13
Nsbsg9
Nsg10
Nsg11
I9
sg12
S'hope'
p379
sg13
(i__main__
Node
p380
(dp381
g2
(i__main__
Node
p382
(dp383
g2
Nsg9
Nsg10
I-1
sg11
I11
sg12
Nsg13
Nsbsg9
Nsg10
Nsg11
I10
sg12
g32
sg13
(i__main__
Node
p384
(dp385
g2
(i__main__
Node
p386
(dp387
g2
Nsg9
Nsg10
I-1
sg11
I12
sg12
Nsg13
Nsbsg9
Nsg10
Nsg11
I11
sg12
S'had'
p388
sg13
(i__main__
Node
p389
(dp390
g2
(i__main__
Node
p391
(dp392
g2
(i__main__
Node
p393
(dp394
g2
Nsg9
Nsg10
I-1
sg11
I14
sg12
Nsg13
Nsbsg9
Nsg10
Nsg11
I13
sg12
S'get'
p395
sg13
(i__main__
Node
p396
(dp397
g2
(i__main__
Node
p398
(dp399
g2
Nsg9
Nsg10
I-1
sg11
I15
sg12
Nsg13
Nsbsg9
Nsg10
Nsg11
I14
sg12
S'day'
p400
sg13
(i__main__
Node
p401
(dp402
g2
Nsg9
Nsg10
I1
sg11
I15
sg12
Nsg13
Nsbsbsbsg9
Nsg10
Nsg11
I12
sg12
S'rain'
p403
sg13
(i__main__
Node
p404
(dp405
g2
(i__main__
Node
p406
(dp407
g2
Nsg9
Nsg10
I-1
sg11
I14
sg12
Nsg13
Nsbsg9
Nsg10
Nsg11
I13
sg12
g248
sg13
(i__main__
Node
p408
(dp409
g2
(i__main__
Node
p410
(dp411
g2
Nsg9
Nsg10
I1
sg11
I15
sg12
Nsg13
Nsbsg9
Nsg10
Nsg11
I14
sg12
S'rest'
p412
sg13
(i__main__
Node
p413
(dp414
g2
Nsg9
Nsg10
I-1
sg11
I15
sg12
Nsg13
Nsbsbsbsbsbsbsbsbsbsbsbsg9
Nsg10
Nsg11
I4
sg12
g221
sg13
(i__main__
Node
p415
(dp416
g2
(i__main__
Node
p417
(dp418
g2
(i__main__
Node
p419
(dp420
g2
Nsg9
Nsg10
I1
sg11
I7
sg12
Nsg13
Nsbsg9
Nsg10
Nsg11
I6
sg12
S'look'
p421
sg13
(i__main__
Node
p422
(dp423
g2
(i__main__
Node
p424
(dp425
g2
Nsg9
Nsg10
I-1
sg11
I8
sg12
Nsg13
Nsbsg9
Nsg10
Nsg11
I7
sg12
S'raini'
p426
sg13
(i__main__
Node
p427
(dp428
g2
(i__main__
Node
p429
(dp430
g2
Nsg9
Nsg10
I1
sg11
I9
sg12
Nsg13
Nsbsg9
Nsg10
Nsg11
I8
sg12
g310
sg13
(i__main__
Node
p431
(dp432
g2
(i__main__
Node
p433
(dp434
g2
Nsg9
Nsg10
I1
sg11
I10
sg12
Nsg13
Nsbsg9
Nsg10
Nsg11
I9
sg12
S'than'
p435
sg13
(i__main__
Node
p436
(dp437
g2
(i__main__
Node
p438
(dp439
g2
Nsg9
Nsg10
I1
sg11
I11
sg12
Nsg13
Nsbsg9
Nsg10
Nsg11
I10
sg12
S'shower'
p440
sg13
(i__main__
Node
p441
(dp442
g2
(i__main__
Node
p443
(dp444
g2
(i__main__
Node
p445
(dp446
g2
Nsg9
Nsg10
I1
sg11
I13
sg12
Nsg13
Nsbsg9
Nsg10
Nsg11
I12
sg12
S'lt'
p447
sg13
(i__main__
Node
p448
(dp449
g2
Nsg9
Nsg10
I-1
sg11
I13
sg12
Nsg13
Nsbsbsg9
Nsg10
Nsg11
I11
sg12
S'sunni'
p450
sg13
(i__main__
Node
p451
(dp452
g2
(i__main__
Node
p453
(dp454
g2
Nsg9
Nsg10
I-1
sg11
I13
sg12
Nsg13
Nsbsg9
Nsg10
Nsg11
I12
sg12
g82
sg13
(i__main__
Node
p455
(dp456
g2
(i__main__
Node
p457
(dp458
g2
Nsg9
Nsg10
I-1
sg11
I14
sg12
Nsg13
Nsbsg9
Nsg10
Nsg11
I13
sg12
S'like'
p459
sg13
(i__main__
Node
p460
(dp461
g2
(i__main__
Node
p462
(dp463
g2
Nsg9
Nsg10
I1
sg11
I15
sg12
Nsg13
Nsbsg9
Nsg10
Nsg11
I14
sg12
g379
sg13
(i__main__
Node
p464
(dp465
g2
Nsg9
Nsg10
I-1
sg11
I15
sg12
Nsg13
Nsbsbsbsbsbsbsbsbsbsbsg9
Nsg10
Nsg11
I5
sg12
S'saturday'
p466
sg13
(i__main__
Node
p467
(dp468
g2
(i__main__
Node
p469
(dp470
g2
(i__main__
Node
p471
(dp472
g2
Nsg9
Nsg10
I1
sg11
I8
sg12
Nsg13
Nsbsg9
Nsg10
Nsg11
I7
sg12
S'friday'
p473
sg13
(i__main__
Node
p474
(dp475
g2
(i__main__
Node
p476
(dp477
g2
Nsg9
Nsg10
I1
sg11
I9
sg12
Nsg13
Nsbsg9
Nsg10
Nsg11
I8
sg12
S'woodford'
p478
sg13
(i__main__
Node
p479
(dp480
g2
(i__main__
Node
p481
(dp482
g2
Nsg9
Nsg10
I1
sg11
I10
sg12
Nsg13
Nsbsg9
Nsg10
Nsg11
I9
sg12
S'fulton'
p483
sg13
(i__main__
Node
p484
(dp485
g2
(i__main__
Node
p486
(dp487
g2
Nsg9
Nsg10
I1
sg11
I11
sg12
Nsg13
Nsbsg9
Nsg10
Nsg11
I10
sg12
S'utc'
p488
sg13
(i__main__
Node
p489
(dp490
g2
(i__main__
Node
p491
(dp492
g2
Nsg9
Nsg10
I1
sg11
I12
sg12
Nsg13
Nsbsg9
Nsg10
Nsg11
I11
sg12
S'tuesday'
p493
sg13
(i__main__
Node
p494
(dp495
g2
(i__main__
Node
p496
(dp497
g2
Nsg9
Nsg10
I1
sg11
I13
sg12
Nsg13
Nsbsg9
Nsg10
Nsg11
I12
sg12
S'austin'
p498
sg13
(i__main__
Node
p499
(dp500
g2
(i__main__
Node
p501
(dp502
g2
Nsg9
Nsg10
I1
sg11
I14
sg12
Nsg13
Nsbsg9
Nsg10
Nsg11
I13
sg12
S'howard'
p503
sg13
(i__main__
Node
p504
(dp505
g2
(i__main__
Node
p506
(dp507
g2
Nsg9
Nsg10
I1
sg11
I15
sg12
Nsg13
Nsbsg9
Nsg10
Nsg11
I14
sg12
g211
sg13
(i__main__
Node
p508
(dp509
g2
Nsg9
Nsg10
I-1
sg11
I15
sg12
Nsg13
Nsbsbsbsbsbsbsbsbsbsg9
Nsg10
Nsg11
I6
sg12
g156
sg13
(i__main__
Node
p510
(dp511
g2
(i__main__
Node
p512
(dp513
g2
(i__main__
Node
p514
(dp515
g2
(i__main__
Node
p516
(dp517
g2
Nsg9
Nsg10
I-1
sg11
I10
sg12
Nsg13
Nsbsg9
Nsg10
Nsg11
I9
sg12
S'i'
p518
sg13
(i__main__
Node
p519
(dp520
g2
(i__main__
Node
p521
(dp522
g2
Nsg9
Nsg10
I1
sg11
I11
sg12
Nsg13
Nsbsg9
Nsg10
Nsg11
I10
sg12
g193
sg13
(i__main__
Node
p523
(dp524
g2
(i__main__
Node
p525
(dp526
g2
Nsg9
Nsg10
I-1
sg11
I12
sg12
Nsg13
Nsbsg9
Nsg10
Nsg11
I11
sg12
g226
sg13
(i__main__
Node
p527
(dp528
g2
(i__main__
Node
p529
(dp530
g2
Nsg9
Nsg10
I-1
sg11
I13
sg12
Nsg13
Nsbsg9
Nsg10
Nsg11
I12
sg12
S'night'
p531
sg13
(i__main__
Node
p532
(dp533
g2
Nsg9
Nsg10
I1
sg11
I13
sg12
Nsg13
Nsbsbsbsbsbsg9
Nsg10
Nsg11
I8
sg12
S'some'
p534
sg13
(i__main__
Node
p535
(dp536
g2
(i__main__
Node
p537
(dp538
g2
Nsg9
Nsg10
I1
sg11
I10
sg12
Nsg13
Nsbsg9
Nsg10
Nsg11
I9
sg12
S'schedul'
p539
sg13
(i__main__
Node
p540
(dp541
g2
(i__main__
Node
p542
(dp543
g2
Nsg9
Nsg10
I1
sg11
I11
sg12
Nsg13
Nsbsg9
Nsg10
Nsg11
I10
sg12
S'predict'
p544
sg13
(i__main__
Node
p545
(dp546
g2
(i__main__
Node
p547
(dp548
g2
Nsg9
Nsg10
I1
sg11
I12
sg12
Nsg13
Nsbsg9
Nsg10
Nsg11
I11
sg12
S'lake'
p549
sg13
(i__main__
Node
p550
(dp551
g2
(i__main__
Node
p552
(dp553
g2
Nsg9
Nsg10
I1
sg11
I13
sg12
Nsg13
Nsbsg9
Nsg10
Nsg11
I12
sg12
S'arriv'
p554
sg13
(i__main__
Node
p555
(dp556
g2
(i__main__
Node
p557
(dp558
g2
Nsg9
Nsg10
I-1
sg11
I14
sg12
Nsg13
Nsbsg9
Nsg10
Nsg11
I13
sg12
g32
sg13
(i__main__
Node
p559
(dp560
g2
(i__main__
Node
p561
(dp562
g2
Nsg9
Nsg10
I-1
sg11
I15
sg12
Nsg13
Nsbsg9
Nsg10
Nsg11
I14
sg12
g400
sg13
(i__main__
Node
p563
(dp564
g2
Nsg9
Nsg10
I-1
sg11
I15
sg12
Nsg13
Nsbsbsbsbsbsbsbsbsg9
Nsg10
Nsg11
I7
sg12
g379
sg13
(i__main__
Node
p565
(dp566
g2
(i__main__
Node
p567
(dp568
g2
(i__main__
Node
p569
(dp570
g2
(i__main__
Node
p571
(dp572
g2
Nsg9
Nsg10
I-1
sg11
I11
sg12
Nsg13
Nsbsg9
Nsg10
Nsg11
I10
sg12
g332
sg13
(i__main__
Node
p573
(dp574
g2
(i__main__
Node
p575
(dp576
g2
Nsg9
Nsg10
I-1
sg11
I12
sg12
Nsg13
Nsbsg9
Nsg10
Nsg11
I11
sg12
S'degre'
p577
sg13
(i__main__
Node
p578
(dp579
g2
(i__main__
Node
p580
(dp581
g2
Nsg9
Nsg10
I-1
sg11
I13
sg12
Nsg13
Nsbsg9
Nsg10
Nsg11
I12
sg12
S'enjoy'
p582
sg13
(i__main__
Node
p583
(dp584
g2
(i__main__
Node
p585
(dp586
g2
(i__main__
Node
p587
(dp588
g2
Nsg9
Nsg10
I1
sg11
I15
sg12
Nsg13
Nsbsg9
Nsg10
Nsg11
I14
sg12
S'wind'
p589
sg13
(i__main__
Node
p590
(dp591
g2
Nsg9
Nsg10
I-1
sg11
I15
sg12
Nsg13
Nsbsbsg9
Nsg10
Nsg11
I13
sg12
S'windi'
p592
sg13
(i__main__
Node
p593
(dp594
g2
Nsg9
Nsg10
I1
sg11
I14
sg12
Nsg13
Nsbsbsbsbsbsg9
Nsg10
Nsg11
I9
sg12
g400
sg13
(i__main__
Node
p595
(dp596
g2
(i__main__
Node
p597
(dp598
g2
Nsg9
Nsg10
I1
sg11
I11
sg12
Nsg13
Nsbsg9
Nsg10
Nsg11
I10
sg12
S'dnt'
p599
sg13
(i__main__
Node
p600
(dp601
g2
(i__main__
Node
p602
(dp603
g2
Nsg9
Nsg10
I1
sg11
I12
sg12
Nsg13
Nsbsg9
Nsg10
Nsg11
I11
sg12
S'ur'
p604
sg13
(i__main__
Node
p605
(dp606
g2
(i__main__
Node
p607
(dp608
g2
Nsg9
Nsg10
I1
sg11
I13
sg12
Nsg13
Nsbsg9
Nsg10
Nsg11
I12
sg12
S'rule'
p609
sg13
(i__main__
Node
p610
(dp611
g2
(i__main__
Node
p612
(dp613
g2
Nsg9
Nsg10
I1
sg11
I14
sg12
Nsg13
Nsbsg9
Nsg10
Nsg11
I13
sg12
S'thanksfornothin'
p614
sg13
(i__main__
Node
p615
(dp616
g2
(i__main__
Node
p617
(dp618
g2
Nsg9
Nsg10
I1
sg11
I15
sg12
Nsg13
Nsbsg9
Nsg10
Nsg11
I14
sg12
g280
sg13
(i__main__
Node
p619
(dp620
g2
Nsg9
Nsg10
I-1
sg11
I15
sg12
Nsg13
Nsbsbsbsbsbsbsbsg9
Nsg10
Nsg11
I8
sg12
g361
sg13
(i__main__
Node
p621
(dp622
g2
(i__main__
Node
p623
(dp624
g2
(i__main__
Node
p625
(dp626
g2
(i__main__
Node
p627
(dp628
g2
Nsg9
Nsg10
I1
sg11
I12
sg12
Nsg13
Nsbsg9
Nsg10
Nsg11
I11
sg12
S'nw'
p629
sg13
(i__main__
Node
p630
(dp631
g2
(i__main__
Node
p632
(dp633
g2
Nsg9
Nsg10
I-1
sg11
I13
sg12
Nsg13
Nsbsg9
Nsg10
Nsg11
I12
sg12
S'activ'
p634
sg13
(i__main__
Node
p635
(dp636
g2
(i__main__
Node
p637
(dp638
g2
Nsg9
Nsg10
I-1
sg11
I14
sg12
Nsg13
Nsbsg9
Nsg10
Nsg11
I13
sg12
S'alert'
p639
sg13
(i__main__
Node
p640
(dp641
g2
(i__main__
Node
p642
(dp643
g2
Nsg9
Nsg10
I-1
sg11
I15
sg12
Nsg13
Nsbsg9
Nsg10
Nsg11
I14
sg12
S'eax'
p644
sg13
(i__main__
Node
p645
(dp646
g2
Nsg9
Nsg10
I-1
sg11
I15
sg12
Nsg13
Nsbsbsbsbsbsg9
Nsg10
Nsg11
I10
sg12
S'issu'
p647
sg13
(i__main__
Node
p648
(dp649
g2
Nsg9
Nsg10
I1
sg11
I11
sg12
Nsg13
Nsbsbsg9
Nsg10
Nsg11
I9
sg12
S'outlook'
p650
sg13
(i__main__
Node
p651
(dp652
g2
(i__main__
Node
p653
(dp654
g2
(i__main__
Node
p655
(dp656
g2
Nsg9
Nsg10
I1
sg11
I12
sg12
Nsg13
Nsbsg9
Nsg10
Nsg11
I11
sg12
S'open'
p657
sg13
(i__main__
Node
p658
(dp659
g2
(i__main__
Node
p660
(dp661
g2
Nsg9
Nsg10
I1
sg11
I13
sg12
Nsg13
Nsbsg9
Nsg10
Nsg11
I12
sg12
S'gone'
p662
sg13
(i__main__
Node
p663
(dp664
g2
(i__main__
Node
p665
(dp666
g2
Nsg9
Nsg10
I1
sg11
I14
sg12
Nsg13
Nsbsg9
Nsg10
Nsg11
I13
sg12
S'more'
p667
sg13
(i__main__
Node
p668
(dp669
g2
(i__main__
Node
p670
(dp671
g2
Nsg9
Nsg10
I-1
sg11
I15
sg12
Nsg13
Nsbsg9
Nsg10
Nsg11
I14
sg12
S'thunderstorm'
p672
sg13
(i__main__
Node
p673
(dp674
g2
Nsg9
Nsg10
I-1
sg11
I15
sg12
Nsg13
Nsbsbsbsbsbsg9
Nsg10
Nsg11
I10
sg12
g473
sg13
(i__main__
Node
p675
(dp676
g2
(i__main__
Node
p677
(dp678
g2
(i__main__
Node
p679
(dp680
g2
(i__main__
Node
p681
(dp682
g2
Nsg9
Nsg10
I1
sg11
I14
sg12
Nsg13
Nsbsg9
Nsg10
Nsg11
I13
sg12
S'nation'
p683
sg13
(i__main__
Node
p684
(dp685
g2
(i__main__
Node
p686
(dp687
g2
Nsg9
Nsg10
I1
sg11
I15
sg12
Nsg13
Nsbsg9
Nsg10
Nsg11
I14
sg12
S'weatherman'
p688
sg13
(i__main__
Node
p689
(dp690
g2
Nsg9
Nsg10
I-1
sg11
I15
sg12
Nsg13
Nsbsbsbsg9
Nsg10
Nsg11
I12
sg12
S'do'
p691
sg13
(i__main__
Node
p692
(dp693
g2
Nsg9
Nsg10
I-1
sg11
I13
sg12
Nsg13
Nsbsbsg9
Nsg10
Nsg11
I11
sg12
S'outsid'
p694
sg13
(i__main__
Node
p695
(dp696
g2
(i__main__
Node
p697
(dp698
g2
(i__main__
Node
p699
(dp700
g2
Nsg9
Nsg10
I1
sg11
I14
sg12
Nsg13
Nsbsg9
Nsg10
Nsg11
I13
sg12
S'decid'
p701
sg13
(i__main__
Node
p702
(dp703
g2
Nsg9
Nsg10
I-1
sg11
I14
sg12
Nsg13
Nsbsbsg9
Nsg10
Nsg11
I12
sg12
S'humid'
p704
sg13
(i__main__
Node
p705
(dp706
g2
(i__main__
Node
p707
(dp708
g2
(i__main__
Node
p709
(dp710
g2
Nsg9
Nsg10
I1
sg11
I15
sg12
Nsg13
Nsbsg9
Nsg10
Nsg11
I14
sg12
S'what'
p711
sg13
(i__main__
Node
p712
(dp713
g2
Nsg9
Nsg10
I-1
sg11
I15
sg12
Nsg13
Nsbsbsg9
Nsg10
Nsg11
I13
sg12
g544
sg13
(i__main__
Node
p714
(dp715
g2
(i__main__
Node
p716
(dp717
g2
Nsg9
Nsg10
I-1
sg11
I15
sg12
Nsg13
Nsbsg9
Nsg10
Nsg11
I14
sg12
S'wednesday'
p718
sg13
(i__main__
Node
p719
(dp720
g2
Nsg9
Nsg10
I-1
sg11
I15
sg12
Nsg13
Nsbsbsbsbsbsbsbsbsbsbsbsbsbsbsb.