(i__main__
Node
p0
(dp1
S'right'
p2
(i__main__
Node
p3
(dp4
g2
(i__main__
Node
p5
(dp6
g2
(i__main__
Node
p7
(dp8
g2
NsS'parser'
p9
NsS'label'
p10
I-1
sS'depth'
p11
I4
sS'criterion'
p12
NsS'left'
p13
Nsbsg9
Nsg10
Nsg11
I3
sg12
S'tammani'
p14
sg13
(i__main__
Node
p15
(dp16
g2
(i__main__
Node
p17
(dp18
g2
Nsg9
Nsg10
I-1
sg11
I5
sg12
Nsg13
Nsbsg9
Nsg10
Nsg11
I4
sg12
S'do'
p19
sg13
(i__main__
Node
p20
(dp21
g2
Nsg9
Nsg10
I1
sg11
I5
sg12
Nsg13
Nsbsbsbsg9
Nsg10
Nsg11
I2
sg12
S'victim'
p22
sg13
(i__main__
Node
p23
(dp24
g2
(i__main__
Node
p25
(dp26
g2
(i__main__
Node
p27
(dp28
g2
Nsg9
Nsg10
I-1
sg11
I5
sg12
Nsg13
Nsbsg9
Nsg10
Nsg11
I4
sg12
S'wind'
p29
sg13
(i__main__
Node
p30
(dp31
g2
(i__main__
Node
p32
(dp33
g2
Nsg9
Nsg10
I-1
sg11
I6
sg12
Nsg13
Nsbsg9
Nsg10
Nsg11
I5
sg12
S't'
p34
sg13
(i__main__
Node
p35
(dp36
g2
(i__main__
Node
p37
(dp38
g2
Nsg9
Nsg10
I-1
sg11
I7
sg12
Nsg13
Nsbsg9
Nsg10
Nsg11
I6
sg12
S'all'
p39
sg13
(i__main__
Node
p40
(dp41
g2
(i__main__
Node
p42
(dp43
g2
(i__main__
Node
p44
(dp45
g2
Nsg9
Nsg10
I1
sg11
I9
sg12
Nsg13
Nsbsg9
Nsg10
Nsg11
I8
sg12
S's'
p46
sg13
(i__main__
Node
p47
(dp48
g2
Nsg9
Nsg10
I-1
sg11
I9
sg12
Nsg13
Nsbsbsg9
Nsg10
Nsg11
I7
sg12
S'assess'
p49
sg13
(i__main__
Node
p50
(dp51
g2
(i__main__
Node
p52
(dp53
g2
(i__main__
Node
p54
(dp55
g2
Nsg9
Nsg10
I1
sg11
I10
sg12
Nsg13
Nsbsg9
Nsg10
Nsg11
I9
sg12
S'devast'
p56
sg13
(i__main__
Node
p57
(dp58
g2
Nsg9
Nsg10
I-1
sg11
I10
sg12
Nsg13
Nsbsbsg9
Nsg10
Nsg11
I8
sg12
S'ha'
p59
sg13
(i__main__
Node
p60
(dp61
g2
(i__main__
Node
p62
(dp63
g2
Nsg9
Nsg10
I-1
sg11
I10
sg12
Nsg13
Nsbsg9
Nsg10
Nsg11
I9
sg12
S'how'
p64
sg13
(i__main__
Node
p65
(dp66
g2
(i__main__
Node
p67
(dp68
g2
Nsg9
Nsg10
I-1
sg11
I11
sg12
Nsg13
Nsbsg9
Nsg10
Nsg11
I10
sg12
S'morn'
p69
sg13
(i__main__
Node
p70
(dp71
g2
(i__main__
Node
p72
(dp73
g2
Nsg9
Nsg10
I-1
sg11
I12
sg12
Nsg13
Nsbsg9
Nsg10
Nsg11
I11
sg12
S'insan'
p74
sg13
(i__main__
Node
p75
(dp76
g2
Nsg9
Nsg10
I1
sg11
I12
sg12
Nsg13
Nsbsbsbsbsbsbsbsbsbsg9
Nsg10
Nsg11
I3
sg12
S'damag'
p77
sg13
(i__main__
Node
p78
(dp79
g2
(i__main__
Node
p80
(dp81
g2
(i__main__
Node
p82
(dp83
g2
Nsg9
Nsg10
I-1
sg11
I6
sg12
Nsg13
Nsbsg9
Nsg10
Nsg11
I5
sg12
S'stress'
p84
sg13
(i__main__
Node
p85
(dp86
g2
Nsg9
Nsg10
I1
sg11
I6
sg12
Nsg13
Nsbsbsg9
Nsg10
Nsg11
I4
sg12
S'survivor'
p87
sg13
(i__main__
Node
p88
(dp89
g2
(i__main__
Node
p90
(dp91
g2
(i__main__
Node
p92
(dp93
g2
(i__main__
Node
p94
(dp95
g2
Nsg9
Nsg10
I-1
sg11
I8
sg12
Nsg13
Nsbsg9
Nsg10
Nsg11
I7
sg12
S'time'
p96
sg13
(i__main__
Node
p97
(dp98
g2
(i__main__
Node
p99
(dp100
g2
Nsg9
Nsg10
I-1
sg11
I9
sg12
Nsg13
Nsbsg9
Nsg10
Nsg11
I8
sg12
S'note'
p101
sg13
(i__main__
Node
p102
(dp103
g2
(i__main__
Node
p104
(dp105
g2
Nsg9
Nsg10
I-1
sg11
I10
sg12
Nsg13
Nsbsg9
Nsg10
Nsg11
I9
sg12
S'comput'
p106
sg13
(i__main__
Node
p107
(dp108
g2
Nsg9
Nsg10
I1
sg11
I10
sg12
Nsg13
Nsbsbsbsbsg9
Nsg10
Nsg11
I6
sg12
S'mention'
p109
sg13
(i__main__
Node
p110
(dp111
g2
(i__main__
Node
p112
(dp113
g2
Nsg9
Nsg10
I1
sg11
I8
sg12
Nsg13
Nsbsg9
Nsg10
Nsg11
I7
sg12
S'die'
p114
sg13
(i__main__
Node
p115
(dp116
g2
(i__main__
Node
p117
(dp118
g2
Nsg9
Nsg10
I1
sg11
I9
sg12
Nsg13
Nsbsg9
Nsg10
Nsg11
I8
sg12
S'se'
p119
sg13
(i__main__
Node
p120
(dp121
g2
(i__main__
Node
p122
(dp123
g2
Nsg9
Nsg10
I1
sg11
I10
sg12
Nsg13
Nsbsg9
Nsg10
Nsg11
I9
sg12
S'alert'
p124
sg13
(i__main__
Node
p125
(dp126
g2
Nsg9
Nsg10
I-1
sg11
I10
sg12
Nsg13
Nsbsbsbsbsbsg9
Nsg10
Nsg11
I5
sg12
S'home'
p127
sg13
(i__main__
Node
p128
(dp129
g2
(i__main__
Node
p130
(dp131
g2
Nsg9
Nsg10
I1
sg11
I7
sg12
Nsg13
Nsbsg9
Nsg10
Nsg11
I6
sg12
S'yesterday'
p132
sg13
(i__main__
Node
p133
(dp134
g2
(i__main__
Node
p135
(dp136
g2
(i__main__
Node
p137
(dp138
g2
Nsg9
Nsg10
I-1
sg11
I9
sg12
Nsg13
Nsbsg9
Nsg10
Nsg11
I8
sg12
S'area'
p139
sg13
(i__main__
Node
p140
(dp141
g2
(i__main__
Node
p142
(dp143
g2
Nsg9
Nsg10
I-1
sg11
I10
sg12
Nsg13
Nsbsg9
Nsg10
Nsg11
I9
sg12
S'hous'
p144
sg13
(i__main__
Node
p145
(dp146
g2
(i__main__
Node
p147
(dp148
g2
Nsg9
Nsg10
I-1
sg11
I11
sg12
Nsg13
Nsbsg9
Nsg10
Nsg11
I10
sg12
S'us'
p149
sg13
(i__main__
Node
p150
(dp151
g2
(i__main__
Node
p152
(dp153
g2
Nsg9
Nsg10
I-1
sg11
I12
sg12
Nsg13
Nsbsg9
Nsg10
Nsg11
I11
sg12
S'until'
p154
sg13
(i__main__
Node
p155
(dp156
g2
(i__main__
Node
p157
(dp158
g2
Nsg9
Nsg10
I-1
sg11
I13
sg12
Nsg13
Nsbsg9
Nsg10
Nsg11
I12
sg12
S'sdwx'
p159
sg13
(i__main__
Node
p160
(dp161
g2
(i__main__
Node
p162
(dp163
g2
(i__main__
Node
p164
(dp165
g2
Nsg9
Nsg10
I-1
sg11
I15
sg12
Nsg13
Nsbsg9
Nsg10
Nsg11
I14
sg12
S'so'
p166
sg13
(i__main__
Node
p167
(dp168
g2
Nsg9
Nsg10
I1
sg11
I15
sg12
Nsg13
Nsbsbsg9
Nsg10
Nsg11
I13
sg12
g109
sg13
(i__main__
Node
p169
(dp170
g2
Nsg9
Nsg10
I1
sg11
I14
sg12
Nsg13
Nsbsbsbsbsbsbsbsg9
Nsg10
Nsg11
I7
sg12
S'our'
p171
sg13
(i__main__
Node
p172
(dp173
g2
(i__main__
Node
p174
(dp175
g2
(i__main__
Node
p176
(dp177
g2
Nsg9
Nsg10
I1
sg11
I10
sg12
Nsg13
Nsbsg9
Nsg10
Nsg11
I9
sg12
S'from'
p178
sg13
(i__main__
Node
p179
(dp180
g2
(i__main__
Node
p181
(dp182
g2
Nsg9
Nsg10
I1
sg11
I11
sg12
Nsg13
Nsbsg9
Nsg10
Nsg11
I10
sg12
S'up'
p183
sg13
(i__main__
Node
p184
(dp185
g2
(i__main__
Node
p186
(dp187
g2
(i__main__
Node
p188
(dp189
g2
Nsg9
Nsg10
I1
sg11
I13
sg12
Nsg13
Nsbsg9
Nsg10
Nsg11
I12
sg12
g39
sg13
(i__main__
Node
p190
(dp191
g2
(i__main__
Node
p192
(dp193
g2
Nsg9
Nsg10
I1
sg11
I14
sg12
Nsg13
Nsbsg9
Nsg10
Nsg11
I13
sg12
S'tree'
p194
sg13
(i__main__
Node
p195
(dp196
g2
(i__main__
Node
p197
(dp198
g2
Nsg9
Nsg10
I1
sg11
I15
sg12
Nsg13
Nsbsg9
Nsg10
Nsg11
I14
sg12
S'chase'
p199
sg13
(i__main__
Node
p200
(dp201
g2
Nsg9
Nsg10
I-1
sg11
I15
sg12
Nsg13
Nsbsbsbsbsg9
Nsg10
Nsg11
I11
sg12
S'i'
p202
sg13
(i__main__
Node
p203
(dp204
g2
Nsg9
Nsg10
I-1
sg11
I12
sg12
Nsg13
Nsbsbsbsbsg9
Nsg10
Nsg11
I8
sg12
S'last'
p205
sg13
(i__main__
Node
p206
(dp207
g2
(i__main__
Node
p208
(dp209
g2
Nsg9
Nsg10
I1
sg11
I10
sg12
Nsg13
Nsbsg9
Nsg10
Nsg11
I9
sg12
S'disast'
p210
sg13
(i__main__
Node
p211
(dp212
g2
(i__main__
Node
p213
(dp214
g2
Nsg9
Nsg10
I1
sg11
I11
sg12
Nsg13
Nsbsg9
Nsg10
Nsg11
I10
sg12
S'ice'
p215
sg13
(i__main__
Node
p216
(dp217
g2
(i__main__
Node
p218
(dp219
g2
Nsg9
Nsg10
I1
sg11
I12
sg12
Nsg13
Nsbsg9
Nsg10
Nsg11
I11
sg12
S'april'
p220
sg13
(i__main__
Node
p221
(dp222
g2
(i__main__
Node
p223
(dp224
g2
Nsg9
Nsg10
I-1
sg11
I13
sg12
Nsg13
Nsbsg9
Nsg10
Nsg11
I12
sg12
S'warn'
p225
sg13
(i__main__
Node
p226
(dp227
g2
(i__main__
Node
p228
(dp229
g2
Nsg9
Nsg10
I-1
sg11
I14
sg12
Nsg13
Nsbsg9
Nsg10
Nsg11
I13
sg12
S'come'
p230
sg13
(i__main__
Node
p231
(dp232
g2
(i__main__
Node
p233
(dp234
g2
Nsg9
Nsg10
I1
sg11
I15
sg12
Nsg13
Nsbsg9
Nsg10
Nsg11
I14
sg12
S'sent'
p235
sg13
(i__main__
Node
p236
(dp237
g2
Nsg9
Nsg10
I-1
sg11
I15
sg12
Nsg13
Nsbsbsbsbsbsbsbsbsbsbsbsbsbsbsg9
Nsg10
Nsg11
I1
sg12
S'storm'
p238
sg13
(i__main__
Node
p239
(dp240
g2
(i__main__
Node
p241
(dp242
g2
(i__main__
Node
p243
(dp244
g2
Nsg9
Nsg10
I-1
sg11
I4
sg12
Nsg13
Nsbsg9
Nsg10
Nsg11
I3
sg12
g46
sg13
(i__main__
Node
p245
(dp246
g2
(i__main__
Node
p247
(dp248
g2
(i__main__
Node
p249
(dp250
g2
Nsg9
Nsg10
I-1
sg11
I6
sg12
Nsg13
Nsbsg9
Nsg10
Nsg11
I5
sg12
S'bit'
p251
sg13
(i__main__
Node
p252
(dp253
g2
Nsg9
Nsg10
I1
sg11
I6
sg12
Nsg13
Nsbsbsg9
Nsg10
Nsg11
I4
sg12
g205
sg13
(i__main__
Node
p254
(dp255
g2
(i__main__
Node
p256
(dp257
g2
Nsg9
Nsg10
I-1
sg11
I6
sg12
Nsg13
Nsbsg9
Nsg10
Nsg11
I5
sg12
S'just'
p258
sg13
(i__main__
Node
p259
(dp260
g2
(i__main__
Node
p261
(dp262
g2
Nsg9
Nsg10
I1
sg11
I7
sg12
Nsg13
Nsbsg9
Nsg10
Nsg11
I6
sg12
g132
sg13
(i__main__
Node
p263
(dp264
g2
(i__main__
Node
p265
(dp266
g2
Nsg9
Nsg10
I1
sg11
I8
sg12
Nsg13
Nsbsg9
Nsg10
Nsg11
I7
sg12
S'bring'
p267
sg13
(i__main__
Node
p268
(dp269
g2
(i__main__
Node
p270
(dp271
g2
Nsg9
Nsg10
I1
sg11
I9
sg12
Nsg13
Nsbsg9
Nsg10
Nsg11
I8
sg12
S'yr'
p272
sg13
(i__main__
Node
p273
(dp274
g2
(i__main__
Node
p275
(dp276
g2
(i__main__
Node
p277
(dp278
g2
Nsg9
Nsg10
I-1
sg11
I11
sg12
Nsg13
Nsbsg9
Nsg10
Nsg11
I10
sg12
S'ws'
p279
sg13
(i__main__
Node
p280
(dp281
g2
Nsg9
Nsg10
I1
sg11
I11
sg12
Nsg13
Nsbsbsg9
Nsg10
Nsg11
I9
sg12
S'everyon'
p282
sg13
(i__main__
Node
p283
(dp284
g2
(i__main__
Node
p285
(dp286
g2
Nsg9
Nsg10
I-1
sg11
I11
sg12
Nsg13
Nsbsg9
Nsg10
Nsg11
I10
sg12
S'have'
p287
sg13
(i__main__
Node
p288
(dp289
g2
(i__main__
Node
p290
(dp291
g2
(i__main__
Node
p292
(dp293
g2
Nsg9
Nsg10
I-1
sg11
I13
sg12
Nsg13
Nsbsg9
Nsg10
Nsg11
I12
sg12
S'much'
p294
sg13
(i__main__
Node
p295
(dp296
g2
Nsg9
Nsg10
I1
sg11
I13
sg12
Nsg13
Nsbsbsg9
Nsg10
Nsg11
I11
sg12
S'say'
p297
sg13
(i__main__
Node
p298
(dp299
g2
(i__main__
Node
p300
(dp301
g2
(i__main__
Node
p302
(dp303
g2
Nsg9
Nsg10
I-1
sg11
I14
sg12
Nsg13
Nsbsg9
Nsg10
Nsg11
I13
sg12
S'compani'
p304
sg13
(i__main__
Node
p305
(dp306
g2
Nsg9
Nsg10
I1
sg11
I14
sg12
Nsg13
Nsbsbsg9
Nsg10
Nsg11
I12
sg12
S'blast'
p307
sg13
(i__main__
Node
p308
(dp309
g2
(i__main__
Node
p310
(dp311
g2
(i__main__
Node
p312
(dp313
g2
Nsg9
Nsg10
I-1
sg11
I15
sg12
Nsg13
Nsbsg9
Nsg10
Nsg11
I14
sg12
S'wash'
p314
sg13
(i__main__
Node
p315
(dp316
g2
Nsg9
Nsg10
I1
sg11
I15
sg12
Nsg13
Nsbsbsg9
Nsg10
Nsg11
I13
sg12
S'friend'
p317
sg13
(i__main__
Node
p318
(dp319
g2
(i__main__
Node
p320
(dp321
g2
Nsg9
Nsg10
I1
sg11
I15
sg12
Nsg13
Nsbsg9
Nsg10
Nsg11
I14
sg12
S'been'
p322
sg13
(i__main__
Node
p323
(dp324
g2
Nsg9
Nsg10
I-1
sg11
I15
sg12
Nsg13
Nsbsbsbsbsbsbsbsbsbsbsbsbsbsg9
Nsg10
Nsg11
I2
sg12
S'had'
p325
sg13
(i__main__
Node
p326
(dp327
g2
(i__main__
Node
p328
(dp329
g2
(i__main__
Node
p330
(dp331
g2
Nsg9
Nsg10
I-1
sg11
I5
sg12
Nsg13
Nsbsg9
Nsg10
Nsg11
I4
sg12
S'lol'
p332
sg13
(i__main__
Node
p333
(dp334
g2
(i__main__
Node
p335
(dp336
g2
Nsg9
Nsg10
I-1
sg11
I6
sg12
Nsg13
Nsbsg9
Nsg10
Nsg11
I5
sg12
g230
sg13
(i__main__
Node
p337
(dp338
g2
Nsg9
Nsg10
I1
sg11
I6
sg12
Nsg13
Nsbsbsbsg9
Nsg10
Nsg11
I3
sg12
S'childhoodmemori'
p339
sg13
(i__main__
Node
p340
(dp341
g2
(i__main__
Node
p342
(dp343
g2
(i__main__
Node
p344
(dp345
g2
Nsg9
Nsg10
I-1
sg11
I6
sg12
Nsg13
Nsbsg9
Nsg10
Nsg11
I5
sg12
S'today'
p346
sg13
(i__main__
Node
p347
(dp348
g2
(i__main__
Node
p349
(dp350
g2
Nsg9
Nsg10
I-1
sg11
I7
sg12
Nsg13
Nsbsg9
Nsg10
Nsg11
I6
sg12
g46
sg13
(i__main__
Node
p351
(dp352
g2
(i__main__
Node
p353
(dp354
g2
Nsg9
Nsg10
I-1
sg11
I8
sg12
Nsg13
Nsbsg9
Nsg10
Nsg11
I7
sg12
S'it'
p355
sg13
(i__main__
Node
p356
(dp357
g2
(i__main__
Node
p358
(dp359
g2
Nsg9
Nsg10
I-1
sg11
I9
sg12
Nsg13
Nsbsg9
Nsg10
Nsg11
I8
sg12
g69
sg13
(i__main__
Node
p360
(dp361
g2
(i__main__
Node
p362
(dp363
g2
Nsg9
Nsg10
I-1
sg11
I10
sg12
Nsg13
Nsbsg9
Nsg10
Nsg11
I9
sg12
S'you'
p364
sg13
(i__main__
Node
p365
(dp366
g2
(i__main__
Node
p367
(dp368
g2
Nsg9
Nsg10
I1
sg11
I11
sg12
Nsg13
Nsbsg9
Nsg10
Nsg11
I10
sg12
S'rt'
p369
sg13
(i__main__
Node
p370
(dp371
g2
(i__main__
Node
p372
(dp373
g2
Nsg9
Nsg10
I1
sg11
I12
sg12
Nsg13
Nsbsg9
Nsg10
Nsg11
I11
sg12
S'sunni'
p374
sg13
(i__main__
Node
p375
(dp376
g2
(i__main__
Node
p377
(dp378
g2
Nsg9
Nsg10
I-1
sg11
I13
sg12
Nsg13
Nsbsg9
Nsg10
Nsg11
I12
sg12
g109
sg13
(i__main__
Node
p379
(dp380
g2
(i__main__
Node
p381
(dp382
g2
Nsg9
Nsg10
I-1
sg11
I14
sg12
Nsg13
Nsbsg9
Nsg10
Nsg11
I13
sg12
S'respons'
p383
sg13
(i__main__
Node
p384
(dp385
g2
(i__main__
Node
p386
(dp387
g2
Nsg9
Nsg10
I-1
sg11
I15
sg12
Nsg13
Nsbsg9
Nsg10
Nsg11
I14
sg12
g251
sg13
(i__main__
Node
p388
(dp389
g2
Nsg9
Nsg10
I1
sg11
I15
sg12
Nsg13
Nsbsbsbsbsbsbsbsbsbsbsbsg9
Nsg10
Nsg11
I4
sg12
g132
sg13
(i__main__
Node
p390
(dp391
g2
(i__main__
Node
p392
(dp393
g2
(i__main__
Node
p394
(dp395
g2
Nsg9
Nsg10
I1
sg11
I7
sg12
Nsg13
Nsbsg9
Nsg10
Nsg11
I6
sg12
S'miss'
p396
sg13
(i__main__
Node
p397
(dp398
g2
(i__main__
Node
p399
(dp400
g2
(i__main__
Node
p401
(dp402
g2
Nsg9
Nsg10
I1
sg11
I9
sg12
Nsg13
Nsbsg9
Nsg10
Nsg11
I8
sg12
S'day'
p403
sg13
(i__main__
Node
p404
(dp405
g2
(i__main__
Node
p406
(dp407
g2
Nsg9
Nsg10
I1
sg11
I10
sg12
Nsg13
Nsbsg9
Nsg10
Nsg11
I9
sg12
g39
sg13
(i__main__
Node
p408
(dp409
g2
Nsg9
Nsg10
I-1
sg11
I10
sg12
Nsg13
Nsbsbsbsg9
Nsg10
Nsg11
I7
sg12
S'got'
p410
sg13
(i__main__
Node
p411
(dp412
g2
(i__main__
Node
p413
(dp414
g2
Nsg9
Nsg10
I1
sg11
I9
sg12
Nsg13
Nsbsg9
Nsg10
Nsg11
I8
sg12
S'shoe'
p415
sg13
(i__main__
Node
p416
(dp417
g2
(i__main__
Node
p418
(dp419
g2
(i__main__
Node
p420
(dp421
g2
Nsg9
Nsg10
I-1
sg11
I11
sg12
Nsg13
Nsbsg9
Nsg10
Nsg11
I10
sg12
S'more'
p422
sg13
(i__main__
Node
p423
(dp424
g2
Nsg9
Nsg10
I1
sg11
I11
sg12
Nsg13
Nsbsbsg9
Nsg10
Nsg11
I9
sg12
S'htt'
p425
sg13
(i__main__
Node
p426
(dp427
g2
(i__main__
Node
p428
(dp429
g2
(i__main__
Node
p430
(dp431
g2
Nsg9
Nsg10
I-1
sg11
I12
sg12
Nsg13
Nsbsg9
Nsg10
Nsg11
I11
sg12
S'w'
p432
sg13
(i__main__
Node
p433
(dp434
g2
Nsg9
Nsg10
I1
sg11
I12
sg12
Nsg13
Nsbsbsg9
Nsg10
Nsg11
I10
sg12
S'walk'
p435
sg13
(i__main__
Node
p436
(dp437
g2
(i__main__
Node
p438
(dp439
g2
(i__main__
Node
p440
(dp441
g2
Nsg9
Nsg10
I1
sg11
I13
sg12
Nsg13
Nsbsg9
Nsg10
Nsg11
I12
sg12
S'winter'
p442
sg13
(i__main__
Node
p443
(dp444
g2
(i__main__
Node
p445
(dp446
g2
Nsg9
Nsg10
I1
sg11
I14
sg12
Nsg13
Nsbsg9
Nsg10
Nsg11
I13
sg12
S'dark'
p447
sg13
(i__main__
Node
p448
(dp449
g2
(i__main__
Node
p450
(dp451
g2
Nsg9
Nsg10
I1
sg11
I15
sg12
Nsg13
Nsbsg9
Nsg10
Nsg11
I14
sg12
S'gone'
p452
sg13
(i__main__
Node
p453
(dp454
g2
Nsg9
Nsg10
I-1
sg11
I15
sg12
Nsg13
Nsbsbsbsbsg9
Nsg10
Nsg11
I11
sg12
g178
sg13
(i__main__
Node
p455
(dp456
g2
(i__main__
Node
p457
(dp458
g2
(i__main__
Node
p459
(dp460
g2
Nsg9
Nsg10
I-1
sg11
I14
sg12
Nsg13
Nsbsg9
Nsg10
Nsg11
I13
sg12
g202
sg13
(i__main__
Node
p461
(dp462
g2
Nsg9
Nsg10
I1
sg11
I14
sg12
Nsg13
Nsbsbsg9
Nsg10
Nsg11
I12
sg12
S've'
p463
sg13
(i__main__
Node
p464
(dp465
g2
(i__main__
Node
p466
(dp467
g2
(i__main__
Node
p468
(dp469
g2
Nsg9
Nsg10
I1
sg11
I15
sg12
Nsg13
Nsbsg9
Nsg10
Nsg11
I14
sg12
S'lord'
p470
sg13
(i__main__
Node
p471
(dp472
g2
Nsg9
Nsg10
I-1
sg11
I15
sg12
Nsg13
Nsbsbsg9
Nsg10
Nsg11
I13
sg12
S'good'
p473
sg13
(i__main__
Node
p474
(dp475
g2
(i__main__
Node
p476
(dp477
g2
Nsg9
Nsg10
I1
sg11
I15
sg12
Nsg13
Nsbsg9
Nsg10
Nsg11
I14
sg12
S'wrong'
p478
sg13
(i__main__
Node
p479
(dp480
g2
Nsg9
Nsg10
I-1
sg11
I15
sg12
Nsg13
Nsbsbsbsbsbsbsbsbsbsbsg9
Nsg10
Nsg11
I5
sg12
S'snow'
p481
sg13
(i__main__
Node
p482
(dp483
g2
(i__main__
Node
p484
(dp485
g2
(i__main__
Node
p486
(dp487
g2
Nsg9
Nsg10
I1
sg11
I8
sg12
Nsg13
Nsbsg9
Nsg10
Nsg11
I7
sg12
S'peopl'
p488
sg13
(i__main__
Node
p489
(dp490
g2
(i__main__
Node
p491
(dp492
g2
Nsg9
Nsg10
I1
sg11
I9
sg12
Nsg13
Nsbsg9
Nsg10
Nsg11
I8
sg12
S'destroy'
p493
sg13
(i__main__
Node
p494
(dp495
g2
(i__main__
Node
p496
(dp497
g2
(i__main__
Node
p498
(dp499
g2
Nsg9
Nsg10
I-1
sg11
I11
sg12
Nsg13
Nsbsg9
Nsg10
Nsg11
I10
sg12
g369
sg13
(i__main__
Node
p500
(dp501
g2
Nsg9
Nsg10
I1
sg11
I11
sg12
Nsg13
Nsbsbsg9
Nsg10
Nsg11
I9
sg12
S'caus'
p502
sg13
(i__main__
Node
p503
(dp504
g2
(i__main__
Node
p505
(dp506
g2
(i__main__
Node
p507
(dp508
g2
Nsg9
Nsg10
I-1
sg11
I12
sg12
Nsg13
Nsbsg9
Nsg10
Nsg11
I11
sg12
g369
sg13
(i__main__
Node
p509
(dp510
g2
(i__main__
Node
p511
(dp512
g2
Nsg9
Nsg10
I-1
sg11
I13
sg12
Nsg13
Nsbsg9
Nsg10
Nsg11
I12
sg12
S'morristown'
p513
sg13
(i__main__
Node
p514
(dp515
g2
Nsg9
Nsg10
I1
sg11
I13
sg12
Nsg13
Nsbsbsbsg9
Nsg10
Nsg11
I10
sg12
S'confirm'
p516
sg13
(i__main__
Node
p517
(dp518
g2
(i__main__
Node
p519
(dp520
g2
Nsg9
Nsg10
I1
sg11
I12
sg12
Nsg13
Nsbsg9
Nsg10
Nsg11
I11
sg12
S'want'
p521
sg13
(i__main__
Node
p522
(dp523
g2
(i__main__
Node
p524
(dp525
g2
Nsg9
Nsg10
I1
sg11
I13
sg12
Nsg13
Nsbsg9
Nsg10
Nsg11
I12
sg12
S'best'
p526
sg13
(i__main__
Node
p527
(dp528
g2
(i__main__
Node
p529
(dp530
g2
Nsg9
Nsg10
I1
sg11
I14
sg12
Nsg13
Nsbsg9
Nsg10
Nsg11
I13
sg12
S'horribl'
p531
sg13
(i__main__
Node
p532
(dp533
g2
(i__main__
Node
p534
(dp535
g2
Nsg9
Nsg10
I-1
sg11
I15
sg12
Nsg13
Nsbsg9
Nsg10
Nsg11
I14
sg12
g178
sg13
(i__main__
Node
p536
(dp537
g2
Nsg9
Nsg10
I-1
sg11
I15
sg12
Nsg13
Nsbsbsbsbsbsbsbsbsbsg9
Nsg10
Nsg11
I6
sg12
S'tornado'
p538
sg13
(i__main__
Node
p539
(dp540
g2
(i__main__
Node
p541
(dp542
g2
(i__main__
Node
p543
(dp544
g2
Nsg9
Nsg10
I1
sg11
I9
sg12
Nsg13
Nsbsg9
Nsg10
Nsg11
I8
sg12
S'wet'
p545
sg13
(i__main__
Node
p546
(dp547
g2
(i__main__
Node
p548
(dp549
g2
Nsg9
Nsg10
I1
sg11
I10
sg12
Nsg13
Nsbsg9
Nsg10
Nsg11
I9
sg12
S'40'
p550
sg13
(i__main__
Node
p551
(dp552
g2
(i__main__
Node
p553
(dp554
g2
(i__main__
Node
p555
(dp556
g2
Nsg9
Nsg10
I-1
sg11
I12
sg12
Nsg13
Nsbsg9
Nsg10
Nsg11
I11
sg12
S'here'
p557
sg13
(i__main__
Node
p558
(dp559
g2
(i__main__
Node
p560
(dp561
g2
Nsg9
Nsg10
I-1
sg11
I13
sg12
Nsg13
Nsbsg9
Nsg10
Nsg11
I12
sg12
S'beauti'
p562
sg13
(i__main__
Node
p563
(dp564
g2
Nsg9
Nsg10
I1
sg11
I13
sg12
Nsg13
Nsbsbsbsg9
Nsg10
Nsg11
I10
sg12
S'year'
p565
sg13
(i__main__
Node
p566
(dp567
g2
(i__main__
Node
p568
(dp569
g2
Nsg9
Nsg10
I1
sg11
I12
sg12
Nsg13
Nsbsg9
Nsg10
Nsg11
I11
sg12
S'pitt'
p570
sg13
(i__main__
Node
p571
(dp572
g2
(i__main__
Node
p573
(dp574
g2
Nsg9
Nsg10
I1
sg11
I13
sg12
Nsg13
Nsbsg9
Nsg10
Nsg11
I12
sg12
g294
sg13
(i__main__
Node
p575
(dp576
g2
(i__main__
Node
p577
(dp578
g2
(i__main__
Node
p579
(dp580
g2
Nsg9
Nsg10
I-1
sg11
I15
sg12
Nsg13
Nsbsg9
Nsg10
Nsg11
I14
sg12
S'we'
p581
sg13
(i__main__
Node
p582
(dp583
g2
Nsg9
Nsg10
I1
sg11
I15
sg12
Nsg13
Nsbsbsg9
Nsg10
Nsg11
I13
sg12
S'weekend'
p584
sg13
(i__main__
Node
p585
(dp586
g2
(i__main__
Node
p587
(dp588
g2
Nsg9
Nsg10
I1
sg11
I15
sg12
Nsg13
Nsbsg9
Nsg10
Nsg11
I14
sg12
S'team'
p589
sg13
(i__main__
Node
p590
(dp591
g2
Nsg9
Nsg10
I-1
sg11
I15
sg12
Nsg13
Nsbsbsbsbsbsbsbsbsg9
Nsg10
Nsg11
I7
sg12
g322
sg13
(i__main__
Node
p592
(dp593
g2
(i__main__
Node
p594
(dp595
g2
(i__main__
Node
p596
(dp597
g2
Nsg9
Nsg10
I1
sg11
I10
sg12
Nsg13
Nsbsg9
Nsg10
Nsg11
I9
sg12
S'me'
p598
sg13
(i__main__
Node
p599
(dp600
g2
(i__main__
Node
p601
(dp602
g2
Nsg9
Nsg10
I1
sg11
I11
sg12
Nsg13
Nsbsg9
Nsg10
Nsg11
I10
sg12
S'thru'
p603
sg13
(i__main__
Node
p604
(dp605
g2
(i__main__
Node
p606
(dp607
g2
Nsg9
Nsg10
I1
sg11
I12
sg12
Nsg13
Nsbsg9
Nsg10
Nsg11
I11
sg12
S'flight'
p608
sg13
(i__main__
Node
p609
(dp610
g2
(i__main__
Node
p611
(dp612
g2
(i__main__
Node
p613
(dp614
g2
Nsg9
Nsg10
I-1
sg11
I14
sg12
Nsg13
Nsbsg9
Nsg10
Nsg11
I13
sg12
S'where'
p615
sg13
(i__main__
Node
p616
(dp617
g2
Nsg9
Nsg10
I1
sg11
I14
sg12
Nsg13
Nsbsbsg9
Nsg10
Nsg11
I12
sg12
S'great'
p618
sg13
(i__main__
Node
p619
(dp620
g2
(i__main__
Node
p621
(dp622
g2
Nsg9
Nsg10
I1
sg11
I14
sg12
Nsg13
Nsbsg9
Nsg10
Nsg11
I13
sg12
S'confus'
p623
sg13
(i__main__
Node
p624
(dp625
g2
(i__main__
Node
p626
(dp627
g2
Nsg9
Nsg10
I1
sg11
I15
sg12
Nsg13
Nsbsg9
Nsg10
Nsg11
I14
sg12
S'camp'
p628
sg13
(i__main__
Node
p629
(dp630
g2
Nsg9
Nsg10
I-1
sg11
I15
sg12
Nsg13
Nsbsbsbsbsbsbsbsg9
Nsg10
Nsg11
I8
sg12
g205
sg13
(i__main__
Node
p631
(dp632
g2
(i__main__
Node
p633
(dp634
g2
(i__main__
Node
p635
(dp636
g2
Nsg9
Nsg10
I1
sg11
I11
sg12
Nsg13
Nsbsg9
Nsg10
Nsg11
I10
sg12
S'when'
p637
sg13
(i__main__
Node
p638
(dp639
g2
(i__main__
Node
p640
(dp641
g2
Nsg9
Nsg10
I1
sg11
I12
sg12
Nsg13
Nsbsg9
Nsg10
Nsg11
I11
sg12
g96
sg13
(i__main__
Node
p642
(dp643
g2
Nsg9
Nsg10
I-1
sg11
I12
sg12
Nsg13
Nsbsbsbsg9
Nsg10
Nsg11
I9
sg12
S'rememb'
p644
sg13
(i__main__
Node
p645
(dp646
g2
(i__main__
Node
p647
(dp648
g2
(i__main__
Node
p649
(dp650
g2
(i__main__
Node
p651
(dp652
g2
Nsg9
Nsg10
I1
sg11
I13
sg12
Nsg13
Nsbsg9
Nsg10
Nsg11
I12
sg12
g403
sg13
(i__main__
Node
p653
(dp654
g2
(i__main__
Node
p655
(dp656
g2
(i__main__
Node
p657
(dp658
g2
Nsg9
Nsg10
I-1
sg11
I15
sg12
Nsg13
Nsbsg9
Nsg10
Nsg11
I14
sg12
g557
sg13
(i__main__
Node
p659
(dp660
g2
Nsg9
Nsg10
I1
sg11
I15
sg12
Nsg13
Nsbsbsg9
Nsg10
Nsg11
I13
sg12
S'don'
p661
sg13
(i__main__
Node
p662
(dp663
g2
(i__main__
Node
p664
(dp665
g2
Nsg9
Nsg10
I1
sg11
I15
sg12
Nsg13
Nsbsg9
Nsg10
Nsg11
I14
sg12
S'life'
p666
sg13
(i__main__
Node
p667
(dp668
g2
Nsg9
Nsg10
I-1
sg11
I15
sg12
Nsg13
Nsbsbsbsbsg9
Nsg10
Nsg11
I11
sg12
g202
sg13
(i__main__
Node
p669
(dp670
g2
Nsg9
Nsg10
I-1
sg11
I12
sg12
Nsg13
Nsbsbsg9
Nsg10
Nsg11
I10
sg12
g396
sg13
(i__main__
Node
p671
(dp672
g2
(i__main__
Node
p673
(dp674
g2
(i__main__
Node
p675
(dp676
g2
Nsg9
Nsg10
I1
sg11
I13
sg12
Nsg13
Nsbsg9
Nsg10
Nsg11
I12
sg12
S'past'
p677
sg13
(i__main__
Node
p678
(dp679
g2
(i__main__
Node
p680
(dp681
g2
Nsg9
Nsg10
I1
sg11
I14
sg12
Nsg13
Nsbsg9
Nsg10
Nsg11
I13
sg12
S'pictur'
p682
sg13
(i__main__
Node
p683
(dp684
g2
(i__main__
Node
p685
(dp686
g2
Nsg9
Nsg10
I1
sg11
I15
sg12
Nsg13
Nsbsg9
Nsg10
Nsg11
I14
sg12
g314
sg13
(i__main__
Node
p687
(dp688
g2
Nsg9
Nsg10
I-1
sg11
I15
sg12
Nsg13
Nsbsbsbsbsg9
Nsg10
Nsg11
I11
sg12
S'photo'
p689
sg13
(i__main__
Node
p690
(dp691
g2
(i__main__
Node
p692
(dp693
g2
(i__main__
Node
p694
(dp695
g2
Nsg9
Nsg10
I-1
sg11
I14
sg12
Nsg13
Nsbsg9
Nsg10
Nsg11
I13
sg12
g294
sg13
(i__main__
Node
p696
(dp697
g2
Nsg9
Nsg10
I1
sg11
I14
sg12
Nsg13
Nsbsbsg9
Nsg10
Nsg11
I12
sg12
g77
sg13
(i__main__
Node
p698
(dp699
g2
(i__main__
Node
p700
(dp701
g2
(i__main__
Node
p702
(dp703
g2
Nsg9
Nsg10
I1
sg11
I15
sg12
Nsg13
Nsbsg9
Nsg10
Nsg11
I14
sg12
S'work'
p704
sg13
(i__main__
Node
p705
(dp706
g2
Nsg9
Nsg10
I-1
sg11
I15
sg12
Nsg13
Nsbsbsg9
Nsg10
Nsg11
I13
sg12
S'late'
p707
sg13
(i__main__
Node
p708
(dp709
g2
(i__main__
Node
p710
(dp711
g2
Nsg9
Nsg10
I1
sg11
I15
sg12
Nsg13
Nsbsg9
Nsg10
Nsg11
I14
sg12
S'ap'
p712
sg13
(i__main__
Node
p713
(dp714
g2
Nsg9
Nsg10
I-1
sg11
I15
sg12
Nsg13
Nsbsbsbsbsbsbsbsbsbsbsbsbsbsbsb.