(i__main__
Node
p0
(dp1
S'right'
p2
(i__main__
Node
p3
(dp4
g2
(i__main__
Node
p5
(dp6
g2
NsS'parser'
p7
NsS'label'
p8
I1
sS'depth'
p9
I3
sS'criterion'
p10
NsS'left'
p11
Nsbsg7
Nsg8
Nsg9
I2
sg10
S'myweath'
p12
sg11
(i__main__
Node
p13
(dp14
g2
(i__main__
Node
p15
(dp16
g2
Nsg7
Nsg8
I1
sg9
I4
sg10
Nsg11
Nsbsg7
Nsg8
Nsg9
I3
sg10
S'shopper'
p17
sg11
(i__main__
Node
p18
(dp19
g2
(i__main__
Node
p20
(dp21
g2
Nsg7
Nsg8
I1
sg9
I5
sg10
Nsg11
Nsbsg7
Nsg8
Nsg9
I4
sg10
S'nokt'
p22
sg11
(i__main__
Node
p23
(dp24
g2
(i__main__
Node
p25
(dp26
g2
Nsg7
Nsg8
I1
sg9
I6
sg10
Nsg11
Nsbsg7
Nsg8
Nsg9
I5
sg10
S'tongu'
p27
sg11
(i__main__
Node
p28
(dp29
g2
(i__main__
Node
p30
(dp31
g2
Nsg7
Nsg8
I1
sg9
I7
sg10
Nsg11
Nsbsg7
Nsg8
Nsg9
I6
sg10
S'convers'
p32
sg11
(i__main__
Node
p33
(dp34
g2
(i__main__
Node
p35
(dp36
g2
(i__main__
Node
p37
(dp38
g2
Nsg7
Nsg8
I1
sg9
I9
sg10
Nsg11
Nsbsg7
Nsg8
Nsg9
I8
sg10
S'wednesday'
p39
sg11
(i__main__
Node
p40
(dp41
g2
Nsg7
Nsg8
I-1
sg9
I9
sg10
Nsg11
Nsbsbsg7
Nsg8
Nsg9
I7
sg10
S'travel'
p42
sg11
(i__main__
Node
p43
(dp44
g2
Nsg7
Nsg8
I-1
sg9
I8
sg10
Nsg11
Nsbsbsbsbsbsbsbsg7
Nsg8
Nsg9
I1
sg10
S'today'
p45
sg11
(i__main__
Node
p46
(dp47
g2
(i__main__
Node
p48
(dp49
g2
(i__main__
Node
p50
(dp51
g2
(i__main__
Node
p52
(dp53
g2
Nsg7
Nsg8
I-1
sg9
I5
sg10
Nsg11
Nsbsg7
Nsg8
Nsg9
I4
sg10
S'hockey'
p54
sg11
(i__main__
Node
p55
(dp56
g2
(i__main__
Node
p57
(dp58
g2
Nsg7
Nsg8
I-1
sg9
I6
sg10
Nsg11
Nsbsg7
Nsg8
Nsg9
I5
sg10
S'tri'
p59
sg11
(i__main__
Node
p60
(dp61
g2
Nsg7
Nsg8
I1
sg9
I6
sg10
Nsg11
Nsbsbsbsg7
Nsg8
Nsg9
I3
sg10
S'patrol'
p62
sg11
(i__main__
Node
p63
(dp64
g2
(i__main__
Node
p65
(dp66
g2
(i__main__
Node
p67
(dp68
g2
Nsg7
Nsg8
I-1
sg9
I6
sg10
Nsg11
Nsbsg7
Nsg8
Nsg9
I5
sg10
S'want'
p69
sg11
(i__main__
Node
p70
(dp71
g2
(i__main__
Node
p72
(dp73
g2
Nsg7
Nsg8
I-1
sg9
I7
sg10
Nsg11
Nsbsg7
Nsg8
Nsg9
I6
sg10
S'it'
p74
sg11
(i__main__
Node
p75
(dp76
g2
Nsg7
Nsg8
I1
sg9
I7
sg10
Nsg11
Nsbsbsbsg7
Nsg8
Nsg9
I4
sg10
S'she'
p77
sg11
(i__main__
Node
p78
(dp79
g2
(i__main__
Node
p80
(dp81
g2
Nsg7
Nsg8
I-1
sg9
I6
sg10
Nsg11
Nsbsg7
Nsg8
Nsg9
I5
sg10
S'spring'
p82
sg11
(i__main__
Node
p83
(dp84
g2
(i__main__
Node
p85
(dp86
g2
Nsg7
Nsg8
I1
sg9
I7
sg10
Nsg11
Nsbsg7
Nsg8
Nsg9
I6
sg10
S'o'
p87
sg11
(i__main__
Node
p88
(dp89
g2
(i__main__
Node
p90
(dp91
g2
Nsg7
Nsg8
I-1
sg9
I8
sg10
Nsg11
Nsbsg7
Nsg8
Nsg9
I7
sg10
S'weather'
p92
sg11
(i__main__
Node
p93
(dp94
g2
(i__main__
Node
p95
(dp96
g2
Nsg7
Nsg8
I1
sg9
I9
sg10
Nsg11
Nsbsg7
Nsg8
Nsg9
I8
sg10
S'along'
p97
sg11
(i__main__
Node
p98
(dp99
g2
(i__main__
Node
p100
(dp101
g2
Nsg7
Nsg8
I1
sg9
I10
sg10
Nsg11
Nsbsg7
Nsg8
Nsg9
I9
sg10
S'cat'
p102
sg11
(i__main__
Node
p103
(dp104
g2
(i__main__
Node
p105
(dp106
g2
Nsg7
Nsg8
I1
sg9
I11
sg10
Nsg11
Nsbsg7
Nsg8
Nsg9
I10
sg10
S'even'
p107
sg11
(i__main__
Node
p108
(dp109
g2
(i__main__
Node
p110
(dp111
g2
Nsg7
Nsg8
I1
sg9
I12
sg10
Nsg11
Nsbsg7
Nsg8
Nsg9
I11
sg10
S'applic'
p112
sg11
(i__main__
Node
p113
(dp114
g2
(i__main__
Node
p115
(dp116
g2
(i__main__
Node
p117
(dp118
g2
Nsg7
Nsg8
I-1
sg9
I14
sg10
Nsg11
Nsbsg7
Nsg8
Nsg9
I13
sg10
S'when'
p119
sg11
(i__main__
Node
p120
(dp121
g2
(i__main__
Node
p122
(dp123
g2
Nsg7
Nsg8
I-1
sg9
I15
sg10
Nsg11
Nsbsg7
Nsg8
Nsg9
I14
sg10
S'say'
p124
sg11
(i__main__
Node
p125
(dp126
g2
Nsg7
Nsg8
I1
sg9
I15
sg10
Nsg11
Nsbsbsbsg7
Nsg8
Nsg9
I12
sg10
S'alway'
p127
sg11
(i__main__
Node
p128
(dp129
g2
(i__main__
Node
p130
(dp131
g2
Nsg7
Nsg8
I-1
sg9
I14
sg10
Nsg11
Nsbsg7
Nsg8
Nsg9
I13
sg10
S'still'
p132
sg11
(i__main__
Node
p133
(dp134
g2
(i__main__
Node
p135
(dp136
g2
Nsg7
Nsg8
I1
sg9
I15
sg10
Nsg11
Nsbsg7
Nsg8
Nsg9
I14
sg10
S'q'
p137
sg11
(i__main__
Node
p138
(dp139
g2
Nsg7
Nsg8
I-1
sg9
I15
sg10
Nsg11
Nsbsbsbsbsbsbsbsbsbsbsbsbsbsg7
Nsg8
Nsg9
I2
sg10
S'snow'
p140
sg11
(i__main__
Node
p141
(dp142
g2
(i__main__
Node
p143
(dp144
g2
(i__main__
Node
p145
(dp146
g2
(i__main__
Node
p147
(dp148
g2
Nsg7
Nsg8
I1
sg9
I6
sg10
Nsg11
Nsbsg7
Nsg8
Nsg9
I5
sg10
S'one'
p149
sg11
(i__main__
Node
p150
(dp151
g2
(i__main__
Node
p152
(dp153
g2
Nsg7
Nsg8
I1
sg9
I7
sg10
Nsg11
Nsbsg7
Nsg8
Nsg9
I6
sg10
S'mtvernon'
p154
sg11
(i__main__
Node
p155
(dp156
g2
(i__main__
Node
p157
(dp158
g2
Nsg7
Nsg8
I1
sg9
I8
sg10
Nsg11
Nsbsg7
Nsg8
Nsg9
I7
sg10
S'humid'
p159
sg11
(i__main__
Node
p160
(dp161
g2
(i__main__
Node
p162
(dp163
g2
Nsg7
Nsg8
I1
sg9
I9
sg10
Nsg11
Nsbsg7
Nsg8
Nsg9
I8
sg10
S'rain'
p164
sg11
(i__main__
Node
p165
(dp166
g2
Nsg7
Nsg8
I-1
sg9
I9
sg10
Nsg11
Nsbsbsbsbsbsg7
Nsg8
Nsg9
I4
sg10
g119
sg11
(i__main__
Node
p167
(dp168
g2
(i__main__
Node
p169
(dp170
g2
Nsg7
Nsg8
I1
sg9
I6
sg10
Nsg11
Nsbsg7
Nsg8
Nsg9
I5
sg10
S'__'
p171
sg11
(i__main__
Node
p172
(dp173
g2
(i__main__
Node
p174
(dp175
g2
Nsg7
Nsg8
I1
sg9
I7
sg10
Nsg11
Nsbsg7
Nsg8
Nsg9
I6
sg10
S'condit'
p176
sg11
(i__main__
Node
p177
(dp178
g2
(i__main__
Node
p179
(dp180
g2
Nsg7
Nsg8
I1
sg9
I8
sg10
Nsg11
Nsbsg7
Nsg8
Nsg9
I7
sg10
S'jamaican'
p181
sg11
(i__main__
Node
p182
(dp183
g2
(i__main__
Node
p184
(dp185
g2
Nsg7
Nsg8
I1
sg9
I9
sg10
Nsg11
Nsbsg7
Nsg8
Nsg9
I8
sg10
S'pour'
p186
sg11
(i__main__
Node
p187
(dp188
g2
(i__main__
Node
p189
(dp190
g2
Nsg7
Nsg8
I1
sg9
I10
sg10
Nsg11
Nsbsg7
Nsg8
Nsg9
I9
sg10
S'updat'
p191
sg11
(i__main__
Node
p192
(dp193
g2
Nsg7
Nsg8
I-1
sg9
I10
sg10
Nsg11
Nsbsbsbsbsbsbsbsg7
Nsg8
Nsg9
I3
sg10
S'outsid'
p194
sg11
(i__main__
Node
p195
(dp196
g2
(i__main__
Node
p197
(dp198
g2
(i__main__
Node
p199
(dp200
g2
Nsg7
Nsg8
I-1
sg9
I6
sg10
Nsg11
Nsbsg7
Nsg8
Nsg9
I5
sg10
g159
sg11
(i__main__
Node
p201
(dp202
g2
(i__main__
Node
p203
(dp204
g2
Nsg7
Nsg8
I1
sg9
I7
sg10
Nsg11
Nsbsg7
Nsg8
Nsg9
I6
sg10
g69
sg11
(i__main__
Node
p205
(dp206
g2
(i__main__
Node
p207
(dp208
g2
Nsg7
Nsg8
I1
sg9
I8
sg10
Nsg11
Nsbsg7
Nsg8
Nsg9
I7
sg10
S'countri'
p209
sg11
(i__main__
Node
p210
(dp211
g2
(i__main__
Node
p212
(dp213
g2
Nsg7
Nsg8
I1
sg9
I9
sg10
Nsg11
Nsbsg7
Nsg8
Nsg9
I8
sg10
S'stress'
p214
sg11
(i__main__
Node
p215
(dp216
g2
(i__main__
Node
p217
(dp218
g2
Nsg7
Nsg8
I1
sg9
I10
sg10
Nsg11
Nsbsg7
Nsg8
Nsg9
I9
sg10
S'facebook'
p219
sg11
(i__main__
Node
p220
(dp221
g2
(i__main__
Node
p222
(dp223
g2
Nsg7
Nsg8
I1
sg9
I11
sg10
Nsg11
Nsbsg7
Nsg8
Nsg9
I10
sg10
S'servic'
p224
sg11
(i__main__
Node
p225
(dp226
g2
(i__main__
Node
p227
(dp228
g2
Nsg7
Nsg8
I1
sg9
I12
sg10
Nsg11
Nsbsg7
Nsg8
Nsg9
I11
sg10
S'everybodi'
p229
sg11
(i__main__
Node
p230
(dp231
g2
Nsg7
Nsg8
I-1
sg9
I12
sg10
Nsg11
Nsbsbsbsbsbsbsbsbsg7
Nsg8
Nsg9
I4
sg10
S'feel'
p232
sg11
(i__main__
Node
p233
(dp234
g2
(i__main__
Node
p235
(dp236
g2
Nsg7
Nsg8
I-1
sg9
I6
sg10
Nsg11
Nsbsg7
Nsg8
Nsg9
I5
sg10
S'until'
p237
sg11
(i__main__
Node
p238
(dp239
g2
(i__main__
Node
p240
(dp241
g2
(i__main__
Node
p242
(dp243
g2
Nsg7
Nsg8
I1
sg9
I8
sg10
Nsg11
Nsbsg7
Nsg8
Nsg9
I7
sg10
S'find'
p244
sg11
(i__main__
Node
p245
(dp246
g2
(i__main__
Node
p247
(dp248
g2
(i__main__
Node
p249
(dp250
g2
(i__main__
Node
p251
(dp252
g2
Nsg7
Nsg8
I-1
sg9
I11
sg10
Nsg11
Nsbsg7
Nsg8
Nsg9
I10
sg10
S'right'
p253
sg11
(i__main__
Node
p254
(dp255
g2
Nsg7
Nsg8
I1
sg9
I11
sg10
Nsg11
Nsbsbsg7
Nsg8
Nsg9
I9
sg10
S'mention'
p256
sg11
(i__main__
Node
p257
(dp258
g2
Nsg7
Nsg8
I-1
sg9
I10
sg10
Nsg11
Nsbsbsg7
Nsg8
Nsg9
I8
sg10
S'ani'
p259
sg11
(i__main__
Node
p260
(dp261
g2
(i__main__
Node
p262
(dp263
g2
(i__main__
Node
p264
(dp265
g2
Nsg7
Nsg8
I-1
sg9
I11
sg10
Nsg11
Nsbsg7
Nsg8
Nsg9
I10
sg10
S'd'
p266
sg11
(i__main__
Node
p267
(dp268
g2
Nsg7
Nsg8
I1
sg9
I11
sg10
Nsg11
Nsbsbsg7
Nsg8
Nsg9
I9
sg10
S'via'
p269
sg11
(i__main__
Node
p270
(dp271
g2
(i__main__
Node
p272
(dp273
g2
(i__main__
Node
p274
(dp275
g2
Nsg7
Nsg8
I-1
sg9
I12
sg10
Nsg11
Nsbsg7
Nsg8
Nsg9
I11
sg10
S'degre'
p276
sg11
(i__main__
Node
p277
(dp278
g2
Nsg7
Nsg8
I1
sg9
I12
sg10
Nsg11
Nsbsbsg7
Nsg8
Nsg9
I10
sg10
S'5'
p279
sg11
(i__main__
Node
p280
(dp281
g2
(i__main__
Node
p282
(dp283
g2
(i__main__
Node
p284
(dp285
g2
(i__main__
Node
p286
(dp287
g2
Nsg7
Nsg8
I-1
sg9
I14
sg10
Nsg11
Nsbsg7
Nsg8
Nsg9
I13
sg10
S're'
p288
sg11
(i__main__
Node
p289
(dp290
g2
Nsg7
Nsg8
I1
sg9
I14
sg10
Nsg11
Nsbsbsg7
Nsg8
Nsg9
I12
sg10
S'we'
p291
sg11
(i__main__
Node
p292
(dp293
g2
Nsg7
Nsg8
I-1
sg9
I13
sg10
Nsg11
Nsbsbsg7
Nsg8
Nsg9
I11
sg10
S'start'
p294
sg11
(i__main__
Node
p295
(dp296
g2
(i__main__
Node
p297
(dp298
g2
Nsg7
Nsg8
I1
sg9
I13
sg10
Nsg11
Nsbsg7
Nsg8
Nsg9
I12
sg10
S'fog'
p299
sg11
(i__main__
Node
p300
(dp301
g2
(i__main__
Node
p302
(dp303
g2
Nsg7
Nsg8
I1
sg9
I14
sg10
Nsg11
Nsbsg7
Nsg8
Nsg9
I13
sg10
S'modif'
p304
sg11
(i__main__
Node
p305
(dp306
g2
(i__main__
Node
p307
(dp308
g2
Nsg7
Nsg8
I1
sg9
I15
sg10
Nsg11
Nsbsg7
Nsg8
Nsg9
I14
sg10
S'email'
p309
sg11
(i__main__
Node
p310
(dp311
g2
Nsg7
Nsg8
I-1
sg9
I15
sg10
Nsg11
Nsbsbsbsbsbsbsbsbsbsg7
Nsg8
Nsg9
I6
sg10
S'here'
p312
sg11
(i__main__
Node
p313
(dp314
g2
(i__main__
Node
p315
(dp316
g2
(i__main__
Node
p317
(dp318
g2
(i__main__
Node
p319
(dp320
g2
Nsg7
Nsg8
I1
sg9
I10
sg10
Nsg11
Nsbsg7
Nsg8
Nsg9
I9
sg10
S'way'
p321
sg11
(i__main__
Node
p322
(dp323
g2
Nsg7
Nsg8
I-1
sg9
I10
sg10
Nsg11
Nsbsbsg7
Nsg8
Nsg9
I8
sg10
S'hope'
p324
sg11
(i__main__
Node
p325
(dp326
g2
(i__main__
Node
p327
(dp328
g2
Nsg7
Nsg8
I1
sg9
I10
sg10
Nsg11
Nsbsg7
Nsg8
Nsg9
I9
sg10
S'sa'
p329
sg11
(i__main__
Node
p330
(dp331
g2
(i__main__
Node
p332
(dp333
g2
(i__main__
Node
p334
(dp335
g2
Nsg7
Nsg8
I1
sg9
I12
sg10
Nsg11
Nsbsg7
Nsg8
Nsg9
I11
sg10
S'how'
p336
sg11
(i__main__
Node
p337
(dp338
g2
(i__main__
Node
p339
(dp340
g2
Nsg7
Nsg8
I1
sg9
I13
sg10
Nsg11
Nsbsg7
Nsg8
Nsg9
I12
sg10
S'too'
p341
sg11
(i__main__
Node
p342
(dp343
g2
(i__main__
Node
p344
(dp345
g2
Nsg7
Nsg8
I1
sg9
I14
sg10
Nsg11
Nsbsg7
Nsg8
Nsg9
I13
sg10
S'set'
p346
sg11
(i__main__
Node
p347
(dp348
g2
(i__main__
Node
p349
(dp350
g2
Nsg7
Nsg8
I-1
sg9
I15
sg10
Nsg11
Nsbsg7
Nsg8
Nsg9
I14
sg10
S'hot'
p351
sg11
(i__main__
Node
p352
(dp353
g2
Nsg7
Nsg8
I-1
sg9
I15
sg10
Nsg11
Nsbsbsbsbsbsg7
Nsg8
Nsg9
I10
sg10
g119
sg11
(i__main__
Node
p354
(dp355
g2
(i__main__
Node
p356
(dp357
g2
(i__main__
Node
p358
(dp359
g2
Nsg7
Nsg8
I1
sg9
I13
sg10
Nsg11
Nsbsg7
Nsg8
Nsg9
I12
sg10
S'check'
p360
sg11
(i__main__
Node
p361
(dp362
g2
(i__main__
Node
p363
(dp364
g2
Nsg7
Nsg8
I-1
sg9
I14
sg10
Nsg11
Nsbsg7
Nsg8
Nsg9
I13
sg10
S'day'
p365
sg11
(i__main__
Node
p366
(dp367
g2
(i__main__
Node
p368
(dp369
g2
Nsg7
Nsg8
I-1
sg9
I15
sg10
Nsg11
Nsbsg7
Nsg8
Nsg9
I14
sg10
S'kno'
p370
sg11
(i__main__
Node
p371
(dp372
g2
Nsg7
Nsg8
I1
sg9
I15
sg10
Nsg11
Nsbsbsbsbsg7
Nsg8
Nsg9
I11
sg10
S'video'
p373
sg11
(i__main__
Node
p374
(dp375
g2
(i__main__
Node
p376
(dp377
g2
(i__main__
Node
p378
(dp379
g2
Nsg7
Nsg8
I1
sg9
I14
sg10
Nsg11
Nsbsg7
Nsg8
Nsg9
I13
sg10
g59
sg11
(i__main__
Node
p380
(dp381
g2
(i__main__
Node
p382
(dp383
g2
Nsg7
Nsg8
I1
sg9
I15
sg10
Nsg11
Nsbsg7
Nsg8
Nsg9
I14
sg10
S'bs'
p384
sg11
(i__main__
Node
p385
(dp386
g2
Nsg7
Nsg8
I-1
sg9
I15
sg10
Nsg11
Nsbsbsbsg7
Nsg8
Nsg9
I12
sg10
g74
sg11
(i__main__
Node
p387
(dp388
g2
(i__main__
Node
p389
(dp390
g2
(i__main__
Node
p391
(dp392
g2
Nsg7
Nsg8
I1
sg9
I15
sg10
Nsg11
Nsbsg7
Nsg8
Nsg9
I14
sg10
S'downtim'
p393
sg11
(i__main__
Node
p394
(dp395
g2
Nsg7
Nsg8
I-1
sg9
I15
sg10
Nsg11
Nsbsbsg7
Nsg8
Nsg9
I13
sg10
S'enjoy'
p396
sg11
(i__main__
Node
p397
(dp398
g2
(i__main__
Node
p399
(dp400
g2
Nsg7
Nsg8
I1
sg9
I15
sg10
Nsg11
Nsbsg7
Nsg8
Nsg9
I14
sg10
S'problem'
p401
sg11
(i__main__
Node
p402
(dp403
g2
Nsg7
Nsg8
I-1
sg9
I15
sg10
Nsg11
Nsbsbsbsbsbsbsbsbsg7
Nsg8
Nsg9
I7
sg10
g256
sg11
(i__main__
Node
p404
(dp405
g2
(i__main__
Node
p406
(dp407
g2
(i__main__
Node
p408
(dp409
g2
Nsg7
Nsg8
I1
sg9
I10
sg10
Nsg11
Nsbsg7
Nsg8
Nsg9
I9
sg10
S'appreci'
p410
sg11
(i__main__
Node
p411
(dp412
g2
Nsg7
Nsg8
I-1
sg9
I10
sg10
Nsg11
Nsbsbsg7
Nsg8
Nsg9
I8
sg10
g396
sg11
(i__main__
Node
p413
(dp414
g2
(i__main__
Node
p415
(dp416
g2
(i__main__
Node
p417
(dp418
g2
Nsg7
Nsg8
I-1
sg9
I11
sg10
Nsg11
Nsbsg7
Nsg8
Nsg9
I10
sg10
S'2day'
p419
sg11
(i__main__
Node
p420
(dp421
g2
(i__main__
Node
p422
(dp423
g2
Nsg7
Nsg8
I-1
sg9
I12
sg10
Nsg11
Nsbsg7
Nsg8
Nsg9
I11
sg10
S'tx'
p424
sg11
(i__main__
Node
p425
(dp426
g2
Nsg7
Nsg8
I1
sg9
I12
sg10
Nsg11
Nsbsbsbsg7
Nsg8
Nsg9
I9
sg10
S'app'
p427
sg11
(i__main__
Node
p428
(dp429
g2
(i__main__
Node
p430
(dp431
g2
(i__main__
Node
p432
(dp433
g2
Nsg7
Nsg8
I-1
sg9
I12
sg10
Nsg11
Nsbsg7
Nsg8
Nsg9
I11
sg10
g149
sg11
(i__main__
Node
p434
(dp435
g2
Nsg7
Nsg8
I1
sg9
I12
sg10
Nsg11
Nsbsbsg7
Nsg8
Nsg9
I10
sg10
S'faith'
p436
sg11
(i__main__
Node
p437
(dp438
g2
(i__main__
Node
p439
(dp440
g2
Nsg7
Nsg8
I-1
sg9
I12
sg10
Nsg11
Nsbsg7
Nsg8
Nsg9
I11
sg10
S'mph'
p441
sg11
(i__main__
Node
p442
(dp443
g2
(i__main__
Node
p444
(dp445
g2
(i__main__
Node
p446
(dp447
g2
Nsg7
Nsg8
I1
sg9
I14
sg10
Nsg11
Nsbsg7
Nsg8
Nsg9
I13
sg10
S'person'
p448
sg11
(i__main__
Node
p449
(dp450
g2
(i__main__
Node
p451
(dp452
g2
Nsg7
Nsg8
I1
sg9
I15
sg10
Nsg11
Nsbsg7
Nsg8
Nsg9
I14
sg10
S'philadelphia'
p453
sg11
(i__main__
Node
p454
(dp455
g2
Nsg7
Nsg8
I-1
sg9
I15
sg10
Nsg11
Nsbsbsbsg7
Nsg8
Nsg9
I12
sg10
g127
sg11
(i__main__
Node
p456
(dp457
g2
(i__main__
Node
p458
(dp459
g2
(i__main__
Node
p460
(dp461
g2
Nsg7
Nsg8
I-1
sg9
I15
sg10
Nsg11
Nsbsg7
Nsg8
Nsg9
I14
sg10
S'place'
p462
sg11
(i__main__
Node
p463
(dp464
g2
Nsg7
Nsg8
I-1
sg9
I15
sg10
Nsg11
Nsbsbsg7
Nsg8
Nsg9
I13
sg10
S'so'
p465
sg11
(i__main__
Node
p466
(dp467
g2
(i__main__
Node
p468
(dp469
g2
Nsg7
Nsg8
I-1
sg9
I15
sg10
Nsg11
Nsbsg7
Nsg8
Nsg9
I14
sg10
S'go'
p470
sg11
(i__main__
Node
p471
(dp472
g2
Nsg7
Nsg8
I-1
sg9
I15
sg10
Nsg11
Nsbsbsbsbsbsbsbsbsbsbsbsbsbsbsb.