(i__main__
Node
p0
(dp1
S'right'
p2
(i__main__
Node
p3
(dp4
g2
(i__main__
Node
p5
(dp6
g2
NsS'parser'
p7
NsS'label'
p8
I-1
sS'depth'
p9
I3
sS'criterion'
p10
NsS'left'
p11
Nsbsg7
Nsg8
Nsg9
I2
sg10
S'victim'
p12
sg11
(i__main__
Node
p13
(dp14
g2
(i__main__
Node
p15
(dp16
g2
(i__main__
Node
p17
(dp18
g2
Nsg7
Nsg8
I1
sg9
I5
sg10
Nsg11
Nsbsg7
Nsg8
Nsg9
I4
sg10
S't'
p19
sg11
(i__main__
Node
p20
(dp21
g2
(i__main__
Node
p22
(dp23
g2
Nsg7
Nsg8
I1
sg9
I6
sg10
Nsg11
Nsbsg7
Nsg8
Nsg9
I5
sg10
S'sever'
p24
sg11
(i__main__
Node
p25
(dp26
g2
(i__main__
Node
p27
(dp28
g2
Nsg7
Nsg8
I1
sg9
I7
sg10
Nsg11
Nsbsg7
Nsg8
Nsg9
I6
sg10
S'am'
p29
sg11
(i__main__
Node
p30
(dp31
g2
(i__main__
Node
p32
(dp33
g2
Nsg7
Nsg8
I1
sg9
I8
sg10
Nsg11
Nsbsg7
Nsg8
Nsg9
I7
sg10
S'morn'
p34
sg11
(i__main__
Node
p35
(dp36
g2
(i__main__
Node
p37
(dp38
g2
Nsg7
Nsg8
I1
sg9
I9
sg10
Nsg11
Nsbsg7
Nsg8
Nsg9
I8
sg10
S'blown'
p39
sg11
(i__main__
Node
p40
(dp41
g2
(i__main__
Node
p42
(dp43
g2
Nsg7
Nsg8
I1
sg9
I10
sg10
Nsg11
Nsbsg7
Nsg8
Nsg9
I9
sg10
S'tho'
p44
sg11
(i__main__
Node
p45
(dp46
g2
(i__main__
Node
p47
(dp48
g2
Nsg7
Nsg8
I1
sg9
I11
sg10
Nsg11
Nsbsg7
Nsg8
Nsg9
I10
sg10
S'insan'
p49
sg11
(i__main__
Node
p50
(dp51
g2
Nsg7
Nsg8
I-1
sg9
I11
sg10
Nsg11
Nsbsbsbsbsbsbsbsbsg7
Nsg8
Nsg9
I3
sg10
S'damag'
p52
sg11
(i__main__
Node
p53
(dp54
g2
(i__main__
Node
p55
(dp56
g2
(i__main__
Node
p57
(dp58
g2
Nsg7
Nsg8
I1
sg9
I6
sg10
Nsg11
Nsbsg7
Nsg8
Nsg9
I5
sg10
S'befor'
p59
sg11
(i__main__
Node
p60
(dp61
g2
(i__main__
Node
p62
(dp63
g2
Nsg7
Nsg8
I1
sg9
I7
sg10
Nsg11
Nsbsg7
Nsg8
Nsg9
I6
sg10
S'want'
p64
sg11
(i__main__
Node
p65
(dp66
g2
Nsg7
Nsg8
I-1
sg9
I7
sg10
Nsg11
Nsbsbsbsg7
Nsg8
Nsg9
I4
sg10
S'tomorrow'
p67
sg11
(i__main__
Node
p68
(dp69
g2
(i__main__
Node
p70
(dp71
g2
Nsg7
Nsg8
I-1
sg9
I6
sg10
Nsg11
Nsbsg7
Nsg8
Nsg9
I5
sg10
S'survivor'
p72
sg11
(i__main__
Node
p73
(dp74
g2
(i__main__
Node
p75
(dp76
g2
Nsg7
Nsg8
I1
sg9
I7
sg10
Nsg11
Nsbsg7
Nsg8
Nsg9
I6
sg10
S'toward'
p77
sg11
(i__main__
Node
p78
(dp79
g2
(i__main__
Node
p80
(dp81
g2
(i__main__
Node
p82
(dp83
g2
(i__main__
Node
p84
(dp85
g2
Nsg7
Nsg8
I-1
sg9
I10
sg10
Nsg11
Nsbsg7
Nsg8
Nsg9
I9
sg10
S'littl'
p86
sg11
(i__main__
Node
p87
(dp88
g2
Nsg7
Nsg8
I1
sg9
I10
sg10
Nsg11
Nsbsbsg7
Nsg8
Nsg9
I8
sg10
S'thunder'
p89
sg11
(i__main__
Node
p90
(dp91
g2
Nsg7
Nsg8
I-1
sg9
I9
sg10
Nsg11
Nsbsbsg7
Nsg8
Nsg9
I7
sg10
S'didn'
p92
sg11
(i__main__
Node
p93
(dp94
g2
(i__main__
Node
p95
(dp96
g2
(i__main__
Node
p97
(dp98
g2
Nsg7
Nsg8
I-1
sg9
I10
sg10
Nsg11
Nsbsg7
Nsg8
Nsg9
I9
sg10
S'two'
p99
sg11
(i__main__
Node
p100
(dp101
g2
(i__main__
Node
p102
(dp103
g2
Nsg7
Nsg8
I-1
sg9
I11
sg10
Nsg11
Nsbsg7
Nsg8
Nsg9
I10
sg10
S'tree'
p104
sg11
(i__main__
Node
p105
(dp106
g2
(i__main__
Node
p107
(dp108
g2
Nsg7
Nsg8
I-1
sg9
I12
sg10
Nsg11
Nsbsg7
Nsg8
Nsg9
I11
sg10
S'shower'
p109
sg11
(i__main__
Node
p110
(dp111
g2
(i__main__
Node
p112
(dp113
g2
Nsg7
Nsg8
I-1
sg9
I13
sg10
Nsg11
Nsbsg7
Nsg8
Nsg9
I12
sg10
S'open'
p114
sg11
(i__main__
Node
p115
(dp116
g2
(i__main__
Node
p117
(dp118
g2
Nsg7
Nsg8
I-1
sg9
I14
sg10
Nsg11
Nsbsg7
Nsg8
Nsg9
I13
sg10
S'await'
p119
sg11
(i__main__
Node
p120
(dp121
g2
(i__main__
Node
p122
(dp123
g2
Nsg7
Nsg8
I-1
sg9
I15
sg10
Nsg11
Nsbsg7
Nsg8
Nsg9
I14
sg10
S'final'
p124
sg11
(i__main__
Node
p125
(dp126
g2
Nsg7
Nsg8
I1
sg9
I15
sg10
Nsg11
Nsbsbsbsbsbsbsbsg7
Nsg8
Nsg9
I8
sg10
S'now'
p127
sg11
(i__main__
Node
p128
(dp129
g2
(i__main__
Node
p130
(dp131
g2
Nsg7
Nsg8
I-1
sg9
I10
sg10
Nsg11
Nsbsg7
Nsg8
Nsg9
I9
sg10
S'lost'
p132
sg11
(i__main__
Node
p133
(dp134
g2
(i__main__
Node
p135
(dp136
g2
(i__main__
Node
p137
(dp138
g2
Nsg7
Nsg8
I-1
sg9
I12
sg10
Nsg11
Nsbsg7
Nsg8
Nsg9
I11
sg10
S'musicbuild'
p139
sg11
(i__main__
Node
p140
(dp141
g2
(i__main__
Node
p142
(dp143
g2
Nsg7
Nsg8
I-1
sg9
I13
sg10
Nsg11
Nsbsg7
Nsg8
Nsg9
I12
sg10
S'fibro'
p144
sg11
(i__main__
Node
p145
(dp146
g2
Nsg7
Nsg8
I1
sg9
I13
sg10
Nsg11
Nsbsbsbsg7
Nsg8
Nsg9
I10
sg10
S'can'
p147
sg11
(i__main__
Node
p148
(dp149
g2
(i__main__
Node
p150
(dp151
g2
(i__main__
Node
p152
(dp153
g2
Nsg7
Nsg8
I-1
sg9
I13
sg10
Nsg11
Nsbsg7
Nsg8
Nsg9
I12
sg10
S'footbal'
p154
sg11
(i__main__
Node
p155
(dp156
g2
(i__main__
Node
p157
(dp158
g2
Nsg7
Nsg8
I-1
sg9
I14
sg10
Nsg11
Nsbsg7
Nsg8
Nsg9
I13
sg10
S'your'
p159
sg11
(i__main__
Node
p160
(dp161
g2
(i__main__
Node
p162
(dp163
g2
Nsg7
Nsg8
I-1
sg9
I15
sg10
Nsg11
Nsbsg7
Nsg8
Nsg9
I14
sg10
S'ugh'
p164
sg11
(i__main__
Node
p165
(dp166
g2
Nsg7
Nsg8
I1
sg9
I15
sg10
Nsg11
Nsbsbsbsbsg7
Nsg8
Nsg9
I11
sg10
S'tonight'
p167
sg11
(i__main__
Node
p168
(dp169
g2
(i__main__
Node
p170
(dp171
g2
(i__main__
Node
p172
(dp173
g2
Nsg7
Nsg8
I1
sg9
I14
sg10
Nsg11
Nsbsg7
Nsg8
Nsg9
I13
sg10
S'brewin'
p174
sg11
(i__main__
Node
p175
(dp176
g2
(i__main__
Node
p177
(dp178
g2
Nsg7
Nsg8
I1
sg9
I15
sg10
Nsg11
Nsbsg7
Nsg8
Nsg9
I14
sg10
S'wtf'
p179
sg11
(i__main__
Node
p180
(dp181
g2
Nsg7
Nsg8
I-1
sg9
I15
sg10
Nsg11
Nsbsbsbsg7
Nsg8
Nsg9
I12
sg10
S'may'
p182
sg11
(i__main__
Node
p183
(dp184
g2
(i__main__
Node
p185
(dp186
g2
(i__main__
Node
p187
(dp188
g2
Nsg7
Nsg8
I1
sg9
I15
sg10
Nsg11
Nsbsg7
Nsg8
Nsg9
I14
sg10
S'one'
p189
sg11
(i__main__
Node
p190
(dp191
g2
Nsg7
Nsg8
I-1
sg9
I15
sg10
Nsg11
Nsbsbsg7
Nsg8
Nsg9
I13
sg10
g59
sg11
(i__main__
Node
p192
(dp193
g2
(i__main__
Node
p194
(dp195
g2
Nsg7
Nsg8
I-1
sg9
I15
sg10
Nsg11
Nsbsg7
Nsg8
Nsg9
I14
sg10
S'sunday'
p196
sg11
(i__main__
Node
p197
(dp198
g2
Nsg7
Nsg8
I1
sg9
I15
sg10
Nsg11
Nsbsbsbsbsbsbsbsbsbsbsbsbsbsbsg7
Nsg8
Nsg9
I1
sg10
S'storm'
p199
sg11
(i__main__
Node
p200
(dp201
g2
(i__main__
Node
p202
(dp203
g2
(i__main__
Node
p204
(dp205
g2
(i__main__
Node
p206
(dp207
g2
Nsg7
Nsg8
I1
sg9
I5
sg10
Nsg11
Nsbsg7
Nsg8
Nsg9
I4
sg10
S'degre'
p208
sg11
(i__main__
Node
p209
(dp210
g2
(i__main__
Node
p211
(dp212
g2
Nsg7
Nsg8
I-1
sg9
I6
sg10
Nsg11
Nsbsg7
Nsg8
Nsg9
I5
sg10
S'month'
p213
sg11
(i__main__
Node
p214
(dp215
g2
(i__main__
Node
p216
(dp217
g2
Nsg7
Nsg8
I-1
sg9
I7
sg10
Nsg11
Nsbsg7
Nsg8
Nsg9
I6
sg10
S'rememb'
p218
sg11
(i__main__
Node
p219
(dp220
g2
(i__main__
Node
p221
(dp222
g2
Nsg7
Nsg8
I-1
sg9
I8
sg10
Nsg11
Nsbsg7
Nsg8
Nsg9
I7
sg10
S'mtvernon'
p223
sg11
(i__main__
Node
p224
(dp225
g2
(i__main__
Node
p226
(dp227
g2
Nsg7
Nsg8
I-1
sg9
I9
sg10
Nsg11
Nsbsg7
Nsg8
Nsg9
I8
sg10
S'humid'
p228
sg11
(i__main__
Node
p229
(dp230
g2
(i__main__
Node
p231
(dp232
g2
Nsg7
Nsg8
I-1
sg9
I10
sg10
Nsg11
Nsbsg7
Nsg8
Nsg9
I9
sg10
S'rain'
p233
sg11
(i__main__
Node
p234
(dp235
g2
Nsg7
Nsg8
I1
sg9
I10
sg10
Nsg11
Nsbsbsbsbsbsbsbsg7
Nsg8
Nsg9
I3
sg10
S'when'
p236
sg11
(i__main__
Node
p237
(dp238
g2
(i__main__
Node
p239
(dp240
g2
(i__main__
Node
p241
(dp242
g2
Nsg7
Nsg8
I-1
sg9
I6
sg10
Nsg11
Nsbsg7
Nsg8
Nsg9
I5
sg10
S'i'
p243
sg11
(i__main__
Node
p244
(dp245
g2
Nsg7
Nsg8
I1
sg9
I6
sg10
Nsg11
Nsbsbsg7
Nsg8
Nsg9
I4
sg10
S'front'
p246
sg11
(i__main__
Node
p247
(dp248
g2
(i__main__
Node
p249
(dp250
g2
(i__main__
Node
p251
(dp252
g2
Nsg7
Nsg8
I-1
sg9
I7
sg10
Nsg11
Nsbsg7
Nsg8
Nsg9
I6
sg10
S'mention'
p253
sg11
(i__main__
Node
p254
(dp255
g2
Nsg7
Nsg8
I1
sg9
I7
sg10
Nsg11
Nsbsbsg7
Nsg8
Nsg9
I5
sg10
S'thunderstorm'
p256
sg11
(i__main__
Node
p257
(dp258
g2
(i__main__
Node
p259
(dp260
g2
Nsg7
Nsg8
I-1
sg9
I7
sg10
Nsg11
Nsbsg7
Nsg8
Nsg9
I6
sg10
S'__'
p261
sg11
(i__main__
Node
p262
(dp263
g2
(i__main__
Node
p264
(dp265
g2
Nsg7
Nsg8
I-1
sg9
I8
sg10
Nsg11
Nsbsg7
Nsg8
Nsg9
I7
sg10
S'condit'
p266
sg11
(i__main__
Node
p267
(dp268
g2
(i__main__
Node
p269
(dp270
g2
Nsg7
Nsg8
I-1
sg9
I9
sg10
Nsg11
Nsbsg7
Nsg8
Nsg9
I8
sg10
S'jamaican'
p271
sg11
(i__main__
Node
p272
(dp273
g2
(i__main__
Node
p274
(dp275
g2
(i__main__
Node
p276
(dp277
g2
Nsg7
Nsg8
I-1
sg9
I11
sg10
Nsg11
Nsbsg7
Nsg8
Nsg9
I10
sg10
S'time'
p278
sg11
(i__main__
Node
p279
(dp280
g2
(i__main__
Node
p281
(dp282
g2
Nsg7
Nsg8
I-1
sg9
I12
sg10
Nsg11
Nsbsg7
Nsg8
Nsg9
I11
sg10
S'foot'
p283
sg11
(i__main__
Node
p284
(dp285
g2
Nsg7
Nsg8
I1
sg9
I12
sg10
Nsg11
Nsbsbsbsg7
Nsg8
Nsg9
I9
sg10
S'snow'
p286
sg11
(i__main__
Node
p287
(dp288
g2
(i__main__
Node
p289
(dp290
g2
Nsg7
Nsg8
I-1
sg9
I11
sg10
Nsg11
Nsbsg7
Nsg8
Nsg9
I10
sg10
S'wilder'
p291
sg11
(i__main__
Node
p292
(dp293
g2
(i__main__
Node
p294
(dp295
g2
Nsg7
Nsg8
I-1
sg9
I12
sg10
Nsg11
Nsbsg7
Nsg8
Nsg9
I11
sg10
S'pour'
p296
sg11
(i__main__
Node
p297
(dp298
g2
(i__main__
Node
p299
(dp300
g2
Nsg7
Nsg8
I-1
sg9
I13
sg10
Nsg11
Nsbsg7
Nsg8
Nsg9
I12
sg10
S'pure'
p301
sg11
(i__main__
Node
p302
(dp303
g2
Nsg7
Nsg8
I1
sg9
I13
sg10
Nsg11
Nsbsbsbsbsbsbsbsbsbsbsbsg7
Nsg8
Nsg9
I2
sg10
S'outsid'
p304
sg11
(i__main__
Node
p305
(dp306
g2
(i__main__
Node
p307
(dp308
g2
(i__main__
Node
p309
(dp310
g2
Nsg7
Nsg8
I1
sg9
I5
sg10
Nsg11
Nsbsg7
Nsg8
Nsg9
I4
sg10
g228
sg11
(i__main__
Node
p311
(dp312
g2
(i__main__
Node
p313
(dp314
g2
Nsg7
Nsg8
I-1
sg9
I6
sg10
Nsg11
Nsbsg7
Nsg8
Nsg9
I5
sg10
S'what'
p315
sg11
(i__main__
Node
p316
(dp317
g2
(i__main__
Node
p318
(dp319
g2
Nsg7
Nsg8
I1
sg9
I7
sg10
Nsg11
Nsbsg7
Nsg8
Nsg9
I6
sg10
S'mph'
p320
sg11
(i__main__
Node
p321
(dp322
g2
(i__main__
Node
p323
(dp324
g2
Nsg7
Nsg8
I-1
sg9
I8
sg10
Nsg11
Nsbsg7
Nsg8
Nsg9
I7
sg10
S'7'
p325
sg11
(i__main__
Node
p326
(dp327
g2
(i__main__
Node
p328
(dp329
g2
Nsg7
Nsg8
I-1
sg9
I9
sg10
Nsg11
Nsbsg7
Nsg8
Nsg9
I8
sg10
S'travel'
p330
sg11
(i__main__
Node
p331
(dp332
g2
(i__main__
Node
p333
(dp334
g2
Nsg7
Nsg8
I-1
sg9
I10
sg10
Nsg11
Nsbsg7
Nsg8
Nsg9
I9
sg10
g189
sg11
(i__main__
Node
p335
(dp336
g2
(i__main__
Node
p337
(dp338
g2
Nsg7
Nsg8
I-1
sg9
I11
sg10
Nsg11
Nsbsg7
Nsg8
Nsg9
I10
sg10
S'site'
p339
sg11
(i__main__
Node
p340
(dp341
g2
(i__main__
Node
p342
(dp343
g2
Nsg7
Nsg8
I-1
sg9
I12
sg10
Nsg11
Nsbsg7
Nsg8
Nsg9
I11
sg10
S'monday'
p344
sg11
(i__main__
Node
p345
(dp346
g2
(i__main__
Node
p347
(dp348
g2
Nsg7
Nsg8
I-1
sg9
I13
sg10
Nsg11
Nsbsg7
Nsg8
Nsg9
I12
sg10
S'chanc'
p349
sg11
(i__main__
Node
p350
(dp351
g2
Nsg7
Nsg8
I1
sg9
I13
sg10
Nsg11
Nsbsbsbsbsbsbsbsbsbsbsg7
Nsg8
Nsg9
I3
sg10
S'wind'
p352
sg11
(i__main__
Node
p353
(dp354
g2
(i__main__
Node
p355
(dp356
g2
(i__main__
Node
p357
(dp358
g2
(i__main__
Node
p359
(dp360
g2
Nsg7
Nsg8
I-1
sg9
I7
sg10
Nsg11
Nsbsg7
Nsg8
Nsg9
I6
sg10
g233
sg11
(i__main__
Node
p361
(dp362
g2
(i__main__
Node
p363
(dp364
g2
Nsg7
Nsg8
I-1
sg9
I8
sg10
Nsg11
Nsbsg7
Nsg8
Nsg9
I7
sg10
S'end'
p365
sg11
(i__main__
Node
p366
(dp367
g2
(i__main__
Node
p368
(dp369
g2
Nsg7
Nsg8
I-1
sg9
I9
sg10
Nsg11
Nsbsg7
Nsg8
Nsg9
I8
sg10
S'begin'
p370
sg11
(i__main__
Node
p371
(dp372
g2
Nsg7
Nsg8
I1
sg9
I9
sg10
Nsg11
Nsbsbsbsbsg7
Nsg8
Nsg9
I5
sg10
g67
sg11
(i__main__
Node
p373
(dp374
g2
(i__main__
Node
p375
(dp376
g2
Nsg7
Nsg8
I-1
sg9
I7
sg10
Nsg11
Nsbsg7
Nsg8
Nsg9
I6
sg10
g132
sg11
(i__main__
Node
p377
(dp378
g2
(i__main__
Node
p379
(dp380
g2
Nsg7
Nsg8
I-1
sg9
I8
sg10
Nsg11
Nsbsg7
Nsg8
Nsg9
I7
sg10
S'leav'
p381
sg11
(i__main__
Node
p382
(dp383
g2
(i__main__
Node
p384
(dp385
g2
(i__main__
Node
p386
(dp387
g2
Nsg7
Nsg8
I-1
sg9
I10
sg10
Nsg11
Nsbsg7
Nsg8
Nsg9
I9
sg10
S'give'
p388
sg11
(i__main__
Node
p389
(dp390
g2
(i__main__
Node
p391
(dp392
g2
Nsg7
Nsg8
I-1
sg9
I11
sg10
Nsg11
Nsbsg7
Nsg8
Nsg9
I10
sg10
g109
sg11
(i__main__
Node
p393
(dp394
g2
Nsg7
Nsg8
I1
sg9
I11
sg10
Nsg11
Nsbsbsbsg7
Nsg8
Nsg9
I8
sg10
S'expect'
p395
sg11
(i__main__
Node
p396
(dp397
g2
(i__main__
Node
p398
(dp399
g2
(i__main__
Node
p400
(dp401
g2
Nsg7
Nsg8
I-1
sg9
I11
sg10
Nsg11
Nsbsg7
Nsg8
Nsg9
I10
sg10
S'here'
p402
sg11
(i__main__
Node
p403
(dp404
g2
(i__main__
Node
p405
(dp406
g2
Nsg7
Nsg8
I-1
sg9
I12
sg10
Nsg11
Nsbsg7
Nsg8
Nsg9
I11
sg10
g64
sg11
(i__main__
Node
p407
(dp408
g2
(i__main__
Node
p409
(dp410
g2
Nsg7
Nsg8
I-1
sg9
I13
sg10
Nsg11
Nsbsg7
Nsg8
Nsg9
I12
sg10
S'left'
p411
sg11
(i__main__
Node
p412
(dp413
g2
(i__main__
Node
p414
(dp415
g2
Nsg7
Nsg8
I-1
sg9
I14
sg10
Nsg11
Nsbsg7
Nsg8
Nsg9
I13
sg10
S'car'
p416
sg11
(i__main__
Node
p417
(dp418
g2
Nsg7
Nsg8
I1
sg9
I14
sg10
Nsg11
Nsbsbsbsbsbsg7
Nsg8
Nsg9
I9
sg10
S'our'
p419
sg11
(i__main__
Node
p420
(dp421
g2
(i__main__
Node
p422
(dp423
g2
(i__main__
Node
p424
(dp425
g2
Nsg7
Nsg8
I1
sg9
I12
sg10
Nsg11
Nsbsg7
Nsg8
Nsg9
I11
sg10
S'rt'
p426
sg11
(i__main__
Node
p427
(dp428
g2
Nsg7
Nsg8
I-1
sg9
I12
sg10
Nsg11
Nsbsbsg7
Nsg8
Nsg9
I10
sg10
S'com'
p429
sg11
(i__main__
Node
p430
(dp431
g2
(i__main__
Node
p432
(dp433
g2
(i__main__
Node
p434
(dp435
g2
Nsg7
Nsg8
I1
sg9
I13
sg10
Nsg11
Nsbsg7
Nsg8
Nsg9
I12
sg10
S'90'
p436
sg11
(i__main__
Node
p437
(dp438
g2
(i__main__
Node
p439
(dp440
g2
Nsg7
Nsg8
I1
sg9
I14
sg10
Nsg11
Nsbsg7
Nsg8
Nsg9
I13
sg10
S'right'
p441
sg11
(i__main__
Node
p442
(dp443
g2
Nsg7
Nsg8
I-1
sg9
I14
sg10
Nsg11
Nsbsbsbsg7
Nsg8
Nsg9
I11
sg10
g196
sg11
(i__main__
Node
p444
(dp445
g2
(i__main__
Node
p446
(dp447
g2
(i__main__
Node
p448
(dp449
g2
Nsg7
Nsg8
I-1
sg9
I14
sg10
Nsg11
Nsbsg7
Nsg8
Nsg9
I13
sg10
g243
sg11
(i__main__
Node
p450
(dp451
g2
Nsg7
Nsg8
I1
sg9
I14
sg10
Nsg11
Nsbsbsg7
Nsg8
Nsg9
I12
sg10
g325
sg11
(i__main__
Node
p452
(dp453
g2
(i__main__
Node
p454
(dp455
g2
(i__main__
Node
p456
(dp457
g2
Nsg7
Nsg8
I-1
sg9
I15
sg10
Nsg11
Nsbsg7
Nsg8
Nsg9
I14
sg10
g253
sg11
(i__main__
Node
p458
(dp459
g2
Nsg7
Nsg8
I1
sg9
I15
sg10
Nsg11
Nsbsbsg7
Nsg8
Nsg9
I13
sg10
S'week'
p460
sg11
(i__main__
Node
p461
(dp462
g2
(i__main__
Node
p463
(dp464
g2
Nsg7
Nsg8
I-1
sg9
I15
sg10
Nsg11
Nsbsg7
Nsg8
Nsg9
I14
sg10
S'flood'
p465
sg11
(i__main__
Node
p466
(dp467
g2
Nsg7
Nsg8
I1
sg9
I15
sg10
Nsg11
Nsbsbsbsbsbsbsbsbsbsbsbsg7
Nsg8
Nsg9
I4
sg10
S'today'
p468
sg11
(i__main__
Node
p469
(dp470
g2
(i__main__
Node
p471
(dp472
g2
(i__main__
Node
p473
(dp474
g2
(i__main__
Node
p475
(dp476
g2
Nsg7
Nsg8
I-1
sg9
I8
sg10
Nsg11
Nsbsg7
Nsg8
Nsg9
I7
sg10
S'say'
p477
sg11
(i__main__
Node
p478
(dp479
g2
Nsg7
Nsg8
I1
sg9
I8
sg10
Nsg11
Nsbsbsg7
Nsg8
Nsg9
I6
sg10
S'beauti'
p480
sg11
(i__main__
Node
p481
(dp482
g2
(i__main__
Node
p483
(dp484
g2
(i__main__
Node
p485
(dp486
g2
Nsg7
Nsg8
I-1
sg9
I9
sg10
Nsg11
Nsbsg7
Nsg8
Nsg9
I8
sg10
g426
sg11
(i__main__
Node
p487
(dp488
g2
Nsg7
Nsg8
I1
sg9
I9
sg10
Nsg11
Nsbsbsg7
Nsg8
Nsg9
I7
sg10
S'don'
p489
sg11
(i__main__
Node
p490
(dp491
g2
(i__main__
Node
p492
(dp493
g2
Nsg7
Nsg8
I1
sg9
I9
sg10
Nsg11
Nsbsg7
Nsg8
Nsg9
I8
sg10
S'drive'
p494
sg11
(i__main__
Node
p495
(dp496
g2
(i__main__
Node
p497
(dp498
g2
Nsg7
Nsg8
I1
sg9
I10
sg10
Nsg11
Nsbsg7
Nsg8
Nsg9
I9
sg10
S'where'
p499
sg11
(i__main__
Node
p500
(dp501
g2
(i__main__
Node
p502
(dp503
g2
Nsg7
Nsg8
I1
sg9
I11
sg10
Nsg11
Nsbsg7
Nsg8
Nsg9
I10
sg10
S'drink'
p504
sg11
(i__main__
Node
p505
(dp506
g2
(i__main__
Node
p507
(dp508
g2
(i__main__
Node
p509
(dp510
g2
Nsg7
Nsg8
I-1
sg9
I13
sg10
Nsg11
Nsbsg7
Nsg8
Nsg9
I12
sg10
S'go'
p511
sg11
(i__main__
Node
p512
(dp513
g2
(i__main__
Node
p514
(dp515
g2
Nsg7
Nsg8
I1
sg9
I14
sg10
Nsg11
Nsbsg7
Nsg8
Nsg9
I13
sg10
S'great'
p516
sg11
(i__main__
Node
p517
(dp518
g2
(i__main__
Node
p519
(dp520
g2
Nsg7
Nsg8
I1
sg9
I15
sg10
Nsg11
Nsbsg7
Nsg8
Nsg9
I14
sg10
S'wed'
p521
sg11
(i__main__
Node
p522
(dp523
g2
Nsg7
Nsg8
I-1
sg9
I15
sg10
Nsg11
Nsbsbsbsbsg7
Nsg8
Nsg9
I11
sg10
S's'
p524
sg11
(i__main__
Node
p525
(dp526
g2
(i__main__
Node
p527
(dp528
g2
Nsg7
Nsg8
I1
sg9
I13
sg10
Nsg11
Nsbsg7
Nsg8
Nsg9
I12
sg10
S'famili'
p529
sg11
(i__main__
Node
p530
(dp531
g2
(i__main__
Node
p532
(dp533
g2
(i__main__
Node
p534
(dp535
g2
Nsg7
Nsg8
I-1
sg9
I15
sg10
Nsg11
Nsbsg7
Nsg8
Nsg9
I14
sg10
g477
sg11
(i__main__
Node
p536
(dp537
g2
Nsg7
Nsg8
I1
sg9
I15
sg10
Nsg11
Nsbsbsg7
Nsg8
Nsg9
I13
sg10
S'happi'
p538
sg11
(i__main__
Node
p539
(dp540
g2
(i__main__
Node
p541
(dp542
g2
Nsg7
Nsg8
I-1
sg9
I15
sg10
Nsg11
Nsbsg7
Nsg8
Nsg9
I14
sg10
S'raini'
p543
sg11
(i__main__
Node
p544
(dp545
g2
Nsg7
Nsg8
I-1
sg9
I15
sg10
Nsg11
Nsbsbsbsbsbsbsbsbsbsbsg7
Nsg8
Nsg9
I5
sg10
S'weekend'
p546
sg11
(i__main__
Node
p547
(dp548
g2
(i__main__
Node
p549
(dp550
g2
(i__main__
Node
p551
(dp552
g2
Nsg7
Nsg8
I-1
sg9
I8
sg10
Nsg11
Nsbsg7
Nsg8
Nsg9
I7
sg10
S'it'
p553
sg11
(i__main__
Node
p554
(dp555
g2
(i__main__
Node
p556
(dp557
g2
Nsg7
Nsg8
I1
sg9
I9
sg10
Nsg11
Nsbsg7
Nsg8
Nsg9
I8
sg10
S'back'
p558
sg11
(i__main__
Node
p559
(dp560
g2
(i__main__
Node
p561
(dp562
g2
(i__main__
Node
p563
(dp564
g2
Nsg7
Nsg8
I1
sg9
I11
sg10
Nsg11
Nsbsg7
Nsg8
Nsg9
I10
sg10
S'mayb'
p565
sg11
(i__main__
Node
p566
(dp567
g2
(i__main__
Node
p568
(dp569
g2
Nsg7
Nsg8
I1
sg9
I12
sg10
Nsg11
Nsbsg7
Nsg8
Nsg9
I11
sg10
S'my'
p570
sg11
(i__main__
Node
p571
(dp572
g2
(i__main__
Node
p573
(dp574
g2
(i__main__
Node
p575
(dp576
g2
Nsg7
Nsg8
I-1
sg9
I14
sg10
Nsg11
Nsbsg7
Nsg8
Nsg9
I13
sg10
S'night'
p577
sg11
(i__main__
Node
p578
(dp579
g2
(i__main__
Node
p580
(dp581
g2
Nsg7
Nsg8
I-1
sg9
I15
sg10
Nsg11
Nsbsg7
Nsg8
Nsg9
I14
sg10
S'knoxvil'
p582
sg11
(i__main__
Node
p583
(dp584
g2
Nsg7
Nsg8
I1
sg9
I15
sg10
Nsg11
Nsbsbsbsg7
Nsg8
Nsg9
I12
sg10
S'weather'
p585
sg11
(i__main__
Node
p586
(dp587
g2
Nsg7
Nsg8
I-1
sg9
I13
sg10
Nsg11
Nsbsbsbsbsg7
Nsg8
Nsg9
I9
sg10
g243
sg11
(i__main__
Node
p588
(dp589
g2
(i__main__
Node
p590
(dp591
g2
Nsg7
Nsg8
I1
sg9
I11
sg10
Nsg11
Nsbsg7
Nsg8
Nsg9
I10
sg10
g278
sg11
(i__main__
Node
p592
(dp593
g2
(i__main__
Node
p594
(dp595
g2
(i__main__
Node
p596
(dp597
g2
Nsg7
Nsg8
I1
sg9
I13
sg10
Nsg11
Nsbsg7
Nsg8
Nsg9
I12
sg10
S'high'
p598
sg11
(i__main__
Node
p599
(dp600
g2
(i__main__
Node
p601
(dp602
g2
Nsg7
Nsg8
I1
sg9
I14
sg10
Nsg11
Nsbsg7
Nsg8
Nsg9
I13
sg10
S'been'
p603
sg11
(i__main__
Node
p604
(dp605
g2
Nsg7
Nsg8
I-1
sg9
I14
sg10
Nsg11
Nsbsbsbsg7
Nsg8
Nsg9
I11
sg10
g167
sg11
(i__main__
Node
p606
(dp607
g2
(i__main__
Node
p608
(dp609
g2
(i__main__
Node
p610
(dp611
g2
Nsg7
Nsg8
I-1
sg9
I14
sg10
Nsg11
Nsbsg7
Nsg8
Nsg9
I13
sg10
S'hot'
p612
sg11
(i__main__
Node
p613
(dp614
g2
(i__main__
Node
p615
(dp616
g2
Nsg7
Nsg8
I-1
sg9
I15
sg10
Nsg11
Nsbsg7
Nsg8
Nsg9
I14
sg10
S'nothin'
p617
sg11
(i__main__
Node
p618
(dp619
g2
Nsg7
Nsg8
I1
sg9
I15
sg10
Nsg11
Nsbsbsbsg7
Nsg8
Nsg9
I12
sg10
g402
sg11
(i__main__
Node
p620
(dp621
g2
(i__main__
Node
p622
(dp623
g2
Nsg7
Nsg8
I1
sg9
I14
sg10
Nsg11
Nsbsg7
Nsg8
Nsg9
I13
sg10
S'goin'
p624
sg11
(i__main__
Node
p625
(dp626
g2
(i__main__
Node
p627
(dp628
g2
Nsg7
Nsg8
I1
sg9
I15
sg10
Nsg11
Nsbsg7
Nsg8
Nsg9
I14
sg10
S'music'
p629
sg11
(i__main__
Node
p630
(dp631
g2
Nsg7
Nsg8
I-1
sg9
I15
sg10
Nsg11
Nsbsbsbsbsbsbsbsbsbsg7
Nsg8
Nsg9
I6
sg10
g67
sg11
(i__main__
Node
p632
(dp633
g2
(i__main__
Node
p634
(dp635
g2
(i__main__
Node
p636
(dp637
g2
(i__main__
Node
p638
(dp639
g2
Nsg7
Nsg8
I1
sg9
I10
sg10
Nsg11
Nsbsg7
Nsg8
Nsg9
I9
sg10
S'fair'
p640
sg11
(i__main__
Node
p641
(dp642
g2
(i__main__
Node
p643
(dp644
g2
Nsg7
Nsg8
I1
sg9
I11
sg10
Nsg11
Nsbsg7
Nsg8
Nsg9
I10
sg10
S'new'
p645
sg11
(i__main__
Node
p646
(dp647
g2
(i__main__
Node
p648
(dp649
g2
Nsg7
Nsg8
I1
sg9
I12
sg10
Nsg11
Nsbsg7
Nsg8
Nsg9
I11
sg10
S'sun'
p650
sg11
(i__main__
Node
p651
(dp652
g2
(i__main__
Node
p653
(dp654
g2
(i__main__
Node
p655
(dp656
g2
Nsg7
Nsg8
I-1
sg9
I14
sg10
Nsg11
Nsbsg7
Nsg8
Nsg9
I13
sg10
g179
sg11
(i__main__
Node
p657
(dp658
g2
(i__main__
Node
p659
(dp660
g2
Nsg7
Nsg8
I-1
sg9
I15
sg10
Nsg11
Nsbsg7
Nsg8
Nsg9
I14
sg10
S'tx'
p661
sg11
(i__main__
Node
p662
(dp663
g2
Nsg7
Nsg8
I1
sg9
I15
sg10
Nsg11
Nsbsbsbsg7
Nsg8
Nsg9
I12
sg10
g585
sg11
(i__main__
Node
p664
(dp665
g2
Nsg7
Nsg8
I-1
sg9
I13
sg10
Nsg11
Nsbsbsbsbsbsg7
Nsg8
Nsg9
I8
sg10
S'current'
p666
sg11
(i__main__
Node
p667
(dp668
g2
(i__main__
Node
p669
(dp670
g2
Nsg7
Nsg8
I1
sg9
I10
sg10
Nsg11
Nsbsg7
Nsg8
Nsg9
I9
sg10
g24
sg11
(i__main__
Node
p671
(dp672
g2
(i__main__
Node
p673
(dp674
g2
Nsg7
Nsg8
I1
sg9
I11
sg10
Nsg11
Nsbsg7
Nsg8
Nsg9
I10
sg10
S'still'
p675
sg11
(i__main__
Node
p676
(dp677
g2
(i__main__
Node
p678
(dp679
g2
Nsg7
Nsg8
I1
sg9
I12
sg10
Nsg11
Nsbsg7
Nsg8
Nsg9
I11
sg10
S'11'
p680
sg11
(i__main__
Node
p681
(dp682
g2
(i__main__
Node
p683
(dp684
g2
Nsg7
Nsg8
I1
sg9
I13
sg10
Nsg11
Nsbsg7
Nsg8
Nsg9
I12
sg10
g29
sg11
(i__main__
Node
p685
(dp686
g2
(i__main__
Node
p687
(dp688
g2
(i__main__
Node
p689
(dp690
g2
Nsg7
Nsg8
I1
sg9
I15
sg10
Nsg11
Nsbsg7
Nsg8
Nsg9
I14
sg10
g349
sg11
(i__main__
Node
p691
(dp692
g2
Nsg7
Nsg8
I-1
sg9
I15
sg10
Nsg11
Nsbsbsg7
Nsg8
Nsg9
I13
sg10
g167
sg11
(i__main__
Node
p693
(dp694
g2
(i__main__
Node
p695
(dp696
g2
Nsg7
Nsg8
I1
sg9
I15
sg10
Nsg11
Nsbsg7
Nsg8
Nsg9
I14
sg10
S'sky'
p697
sg11
(i__main__
Node
p698
(dp699
g2
Nsg7
Nsg8
I-1
sg9
I15
sg10
Nsg11
Nsbsbsbsbsbsbsbsbsg7
Nsg8
Nsg9
I7
sg10
S'forecast'
p700
sg11
(i__main__
Node
p701
(dp702
g2
(i__main__
Node
p703
(dp704
g2
(i__main__
Node
p705
(dp706
g2
(i__main__
Node
p707
(dp708
g2
Nsg7
Nsg8
I-1
sg9
I11
sg10
Nsg11
Nsbsg7
Nsg8
Nsg9
I10
sg10
S'sigh'
p709
sg11
(i__main__
Node
p710
(dp711
g2
Nsg7
Nsg8
I1
sg9
I11
sg10
Nsg11
Nsbsbsg7
Nsg8
Nsg9
I9
sg10
g675
sg11
(i__main__
Node
p712
(dp713
g2
(i__main__
Node
p714
(dp715
g2
Nsg7
Nsg8
I-1
sg9
I11
sg10
Nsg11
Nsbsg7
Nsg8
Nsg9
I10
sg10
g460
sg11
(i__main__
Node
p716
(dp717
g2
(i__main__
Node
p718
(dp719
g2
(i__main__
Node
p720
(dp721
g2
Nsg7
Nsg8
I1
sg9
I13
sg10
Nsg11
Nsbsg7
Nsg8
Nsg9
I12
sg10
S'hockey'
p722
sg11
(i__main__
Node
p723
(dp724
g2
Nsg7
Nsg8
I-1
sg9
I13
sg10
Nsg11
Nsbsbsg7
Nsg8
Nsg9
I11
sg10
S'patrol'
p725
sg11
(i__main__
Node
p726
(dp727
g2
(i__main__
Node
p728
(dp729
g2
Nsg7
Nsg8
I1
sg9
I13
sg10
Nsg11
Nsbsg7
Nsg8
Nsg9
I12
sg10
S'mountain'
p730
sg11
(i__main__
Node
p731
(dp732
g2
(i__main__
Node
p733
(dp734
g2
(i__main__
Node
p735
(dp736
g2
Nsg7
Nsg8
I-1
sg9
I15
sg10
Nsg11
Nsbsg7
Nsg8
Nsg9
I14
sg10
S'just'
p737
sg11
(i__main__
Node
p738
(dp739
g2
Nsg7
Nsg8
I1
sg9
I15
sg10
Nsg11
Nsbsbsg7
Nsg8
Nsg9
I13
sg10
g182
sg11
(i__main__
Node
p740
(dp741
g2
(i__main__
Node
p742
(dp743
g2
Nsg7
Nsg8
I-1
sg9
I15
sg10
Nsg11
Nsbsg7
Nsg8
Nsg9
I14
sg10
S'she'
p744
sg11
(i__main__
Node
p745
(dp746
g2
Nsg7
Nsg8
I1
sg9
I15
sg10
Nsg11
Nsbsbsbsbsbsbsbsg7
Nsg8
Nsg9
I8
sg10
g286
sg11
(i__main__
Node
p747
(dp748
g2
(i__main__
Node
p749
(dp750
g2
(i__main__
Node
p751
(dp752
g2
Nsg7
Nsg8
I1
sg9
I11
sg10
Nsg11
Nsbsg7
Nsg8
Nsg9
I10
sg10
S'too'
p753
sg11
(i__main__
Node
p754
(dp755
g2
(i__main__
Node
p756
(dp757
g2
Nsg7
Nsg8
I1
sg9
I12
sg10
Nsg11
Nsbsg7
Nsg8
Nsg9
I11
sg10
S'while'
p758
sg11
(i__main__
Node
p759
(dp760
g2
(i__main__
Node
p761
(dp762
g2
(i__main__
Node
p763
(dp764
g2
Nsg7
Nsg8
I1
sg9
I14
sg10
Nsg11
Nsbsg7
Nsg8
Nsg9
I13
sg10
S'confus'
p765
sg11
(i__main__
Node
p766
(dp767
g2
(i__main__
Node
p768
(dp769
g2
Nsg7
Nsg8
I1
sg9
I15
sg10
Nsg11
Nsbsg7
Nsg8
Nsg9
I14
sg10
g278
sg11
(i__main__
Node
p770
(dp771
g2
Nsg7
Nsg8
I-1
sg9
I15
sg10
Nsg11
Nsbsbsbsg7
Nsg8
Nsg9
I12
sg10
S'next'
p772
sg11
(i__main__
Node
p773
(dp774
g2
(i__main__
Node
p775
(dp776
g2
(i__main__
Node
p777
(dp778
g2
Nsg7
Nsg8
I-1
sg9
I15
sg10
Nsg11
Nsbsg7
Nsg8
Nsg9
I14
sg10
g436
sg11
(i__main__
Node
p779
(dp780
g2
Nsg7
Nsg8
I1
sg9
I15
sg10
Nsg11
Nsbsbsg7
Nsg8
Nsg9
I13
sg10
S'cold'
p781
sg11
(i__main__
Node
p782
(dp783
g2
(i__main__
Node
p784
(dp785
g2
Nsg7
Nsg8
I1
sg9
I15
sg10
Nsg11
Nsbsg7
Nsg8
Nsg9
I14
sg10
g182
sg11
(i__main__
Node
p786
(dp787
g2
Nsg7
Nsg8
I-1
sg9
I15
sg10
Nsg11
Nsbsbsbsbsbsbsg7
Nsg8
Nsg9
I9
sg10
g460
sg11
(i__main__
Node
p788
(dp789
g2
(i__main__
Node
p790
(dp791
g2
(i__main__
Node
p792
(dp793
g2
(i__main__
Node
p794
(dp795
g2
Nsg7
Nsg8
I-1
sg9
I13
sg10
Nsg11
Nsbsg7
Nsg8
Nsg9
I12
sg10
S'he'
p796
sg11
(i__main__
Node
p797
(dp798
g2
Nsg7
Nsg8
I1
sg9
I13
sg10
Nsg11
Nsbsbsg7
Nsg8
Nsg9
I11
sg10
S'out'
p799
sg11
(i__main__
Node
p800
(dp801
g2
(i__main__
Node
p802
(dp803
g2
(i__main__
Node
p804
(dp805
g2
Nsg7
Nsg8
I-1
sg9
I14
sg10
Nsg11
Nsbsg7
Nsg8
Nsg9
I13
sg10
g585
sg11
(i__main__
Node
p806
(dp807
g2
Nsg7
Nsg8
I1
sg9
I14
sg10
Nsg11
Nsbsbsg7
Nsg8
Nsg9
I12
sg10
S'had'
p808
sg11
(i__main__
Node
p809
(dp810
g2
(i__main__
Node
p811
(dp812
g2
Nsg7
Nsg8
I-1
sg9
I14
sg10
Nsg11
Nsbsg7
Nsg8
Nsg9
I13
sg10
S'seattl'
p813
sg11
(i__main__
Node
p814
(dp815
g2
(i__main__
Node
p816
(dp817
g2
Nsg7
Nsg8
I-1
sg9
I15
sg10
Nsg11
Nsbsg7
Nsg8
Nsg9
I14
sg10
g429
sg11
(i__main__
Node
p818
(dp819
g2
Nsg7
Nsg8
I1
sg9
I15
sg10
Nsg11
Nsbsbsbsbsbsg7
Nsg8
Nsg9
I10
sg10
g402
sg11
(i__main__
Node
p820
(dp821
g2
(i__main__
Node
p822
(dp823
g2
(i__main__
Node
p824
(dp825
g2
(i__main__
Node
p826
(dp827
g2
Nsg7
Nsg8
I1
sg9
I14
sg10
Nsg11
Nsbsg7
Nsg8
Nsg9
I13
sg10
g737
sg11
(i__main__
Node
p828
(dp829
g2
(i__main__
Node
p830
(dp831
g2
Nsg7
Nsg8
I-1
sg9
I15
sg10
Nsg11
Nsbsg7
Nsg8
Nsg9
I14
sg10
g147
sg11
(i__main__
Node
p832
(dp833
g2
Nsg7
Nsg8
I-1
sg9
I15
sg10
Nsg11
Nsbsbsbsg7
Nsg8
Nsg9
I12
sg10
g236
sg11
(i__main__
Node
p834
(dp835
g2
(i__main__
Node
p836
(dp837
g2
(i__main__
Node
p838
(dp839
g2
Nsg7
Nsg8
I1
sg9
I15
sg10
Nsg11
Nsbsg7
Nsg8
Nsg9
I14
sg10
S'so'
p840
sg11
(i__main__
Node
p841
(dp842
g2
Nsg7
Nsg8
I-1
sg9
I15
sg10
Nsg11
Nsbsbsg7
Nsg8
Nsg9
I13
sg10
S'seen'
p843
sg11
(i__main__
Node
p844
(dp845
g2
(i__main__
Node
p846
(dp847
g2
Nsg7
Nsg8
I-1
sg9
I15
sg10
Nsg11
Nsbsg7
Nsg8
Nsg9
I14
sg10
S'ahead'
p848
sg11
(i__main__
Node
p849
(dp850
g2
Nsg7
Nsg8
I1
sg9
I15
sg10
Nsg11
Nsbsbsbsbsg7
Nsg8
Nsg9
I11
sg10
g253
sg11
(i__main__
Node
p851
(dp852
g2
(i__main__
Node
p853
(dp854
g2
(i__main__
Node
p855
(dp856
g2
Nsg7
Nsg8
I-1
sg9
I14
sg10
Nsg11
Nsbsg7
Nsg8
Nsg9
I13
sg10
g640
sg11
(i__main__
Node
p857
(dp858
g2
(i__main__
Node
p859
(dp860
g2
Nsg7
Nsg8
I1
sg9
I15
sg10
Nsg11
Nsbsg7
Nsg8
Nsg9
I14
sg10
S'wonder'
p861
sg11
(i__main__
Node
p862
(dp863
g2
Nsg7
Nsg8
I1
sg9
I15
sg10
Nsg11
Nsbsbsbsg7
Nsg8
Nsg9
I12
sg10
S'enjoy'
p864
sg11
(i__main__
Node
p865
(dp866
g2
(i__main__
Node
p867
(dp868
g2
(i__main__
Node
p869
(dp870
g2
Nsg7
Nsg8
I1
sg9
I15
sg10
Nsg11
Nsbsg7
Nsg8
Nsg9
I14
sg10
g598
sg11
(i__main__
Node
p871
(dp872
g2
Nsg7
Nsg8
I-1
sg9
I15
sg10
Nsg11
Nsbsbsg7
Nsg8
Nsg9
I13
sg10
S'predict'
p873
sg11
(i__main__
Node
p874
(dp875
g2
(i__main__
Node
p876
(dp877
g2
Nsg7
Nsg8
I-1
sg9
I15
sg10
Nsg11
Nsbsg7
Nsg8
Nsg9
I14
sg10
S'childhoodmemori'
p878
sg11
(i__main__
Node
p879
(dp880
g2
Nsg7
Nsg8
I1
sg9
I15
sg10
Nsg11
Nsbsbsbsbsbsbsbsbsbsbsbsbsbsbsb.